

Microchip MPLAB XC8 Assembler V2.10 build 88905656 
                                                                                               Mon Feb 10 17:24:47 2020

Microchip MPLAB XC8 C Compiler v2.10 (Free license) build 20190730164152 Og1 
     1                           	processor	16F18346
     2                           	opt	pw 120
     3                           	opt	flic
     4                           	psect	idataBANK0,global,class=CODE,delta=2
     5                           	psect	idataBANK1,global,class=CODE,delta=2
     6                           	psect	stringtext1,global,class=STRCODE,delta=2
     7                           	psect	nvBANK0,global,class=BANK0,space=1,delta=1
     8                           	psect	nvBANK1,global,class=BANK1,space=1,delta=1
     9                           	psect	cinit,global,class=CODE,merge=1,delta=2
    10                           	psect	bssCOMMON,global,class=COMMON,space=1,delta=1
    11                           	psect	bssBANK0,global,class=BANK0,space=1,delta=1
    12                           	psect	dataBANK0,global,class=BANK0,space=1,delta=1
    13                           	psect	bssBANK1,global,class=BANK1,space=1,delta=1
    14                           	psect	dataBANK1,global,class=BANK1,space=1,delta=1
    15                           	psect	inittext,global,class=CODE,delta=2
    16                           	psect	clrtext,global,class=CODE,delta=2
    17                           	psect	cstackCOMMON,global,class=COMMON,space=1,delta=1
    18                           	psect	cstackBANK0,global,class=BANK0,space=1,delta=1
    19                           	psect	maintext,global,class=CODE,merge=1,split=1,delta=2
    20                           	psect	text1,local,class=CODE,merge=1,delta=2
    21                           	psect	text2,local,class=CODE,merge=1,delta=2
    22                           	psect	text3,local,class=CODE,merge=1,delta=2
    23                           	psect	text4,local,class=CODE,merge=1,delta=2
    24                           	psect	text5,local,class=CODE,merge=1,delta=2
    25                           	psect	text6,local,class=CODE,merge=1,delta=2
    26                           	psect	text7,local,class=CODE,merge=1,delta=2
    27                           	psect	text8,local,class=CODE,merge=1,delta=2
    28                           	psect	text9,local,class=CODE,merge=1,delta=2
    29                           	psect	text10,local,class=CODE,merge=1,delta=2
    30                           	psect	text11,local,class=CODE,merge=1,delta=2
    31                           	psect	text12,local,class=CODE,merge=1,delta=2
    32                           	psect	text13,local,class=CODE,merge=1,delta=2
    33                           	psect	text14,local,class=CODE,merge=1,delta=2
    34                           	psect	text15,local,class=CODE,merge=1,delta=2
    35                           	psect	text16,local,class=CODE,merge=1,delta=2
    36                           	psect	text17,local,class=CODE,merge=1,delta=2
    37                           	psect	text18,local,class=CODE,merge=1,delta=2
    38                           	psect	intentry,global,class=CODE,delta=2
    39                           	psect	text20,local,class=CODE,merge=1,delta=2
    40                           	psect	text21,local,class=CODE,merge=1,delta=2
    41                           	psect	text22,local,class=CODE,merge=1,delta=2
    42                           	psect	text23,local,class=CODE,merge=1,delta=2
    43                           	psect	text24,local,class=CODE,merge=1,delta=2
    44                           	psect	text25,local,class=CODE,merge=1,delta=2
    45                           	dabs	1,0x7E,2
    46  0000                     
    47                           ; Version 2.10
    48                           ; Generated 31/07/2019 GMT
    49                           ; 
    50                           ; Copyright © 2019, Microchip Technology Inc. and its subsidiaries ("Microchip")
    51                           ; All rights reserved.
    52                           ; 
    53                           ; This software is developed by Microchip Technology Inc. and its subsidiaries ("Microch
      +                          ip").
    54                           ; 
    55                           ; Redistribution and use in source and binary forms, with or without modification, are
    56                           ; permitted provided that the following conditions are met:
    57                           ; 
    58                           ;     1. Redistributions of source code must retain the above copyright notice, this lis
      +                          t of
    59                           ;        conditions and the following disclaimer.
    60                           ; 
    61                           ;     2. Redistributions in binary form must reproduce the above copyright notice, this 
      +                          list
    62                           ;        of conditions and the following disclaimer in the documentation and/or other
    63                           ;        materials provided with the distribution.
    64                           ; 
    65                           ;     3. Microchip's name may not be used to endorse or promote products derived from th
      +                          is
    66                           ;        software without specific prior written permission.
    67                           ; 
    68                           ; THIS SOFTWARE IS PROVIDED BY MICROCHIP "AS IS" AND ANY EXPRESS OR IMPLIED WARRANTIES,
    69                           ; INCLUDING, BUT NOT LIMITED TO, THE IMPLIED WARRANTIES OF MERCHANTABILITY AND FITNESS F
      +                          OR
    70                           ; PURPOSE ARE DISCLAIMED.  IN NO EVENT SHALL MICROCHIP BE LIABLE FOR ANY DIRECT, INDIREC
      +                          T,
    71                           ; INCIDENTAL, SPECIAL, EXEMPLARY, OR CONSEQUENTIAL DAMAGES (INCLUDING BUT NOT LIMITED TO
    72                           ; PROCUREMENT OF SUBSTITUTE GOODS OR SERVICES; LOSS OF USE, DATA OR PROFITS; OR BUSINESS
    73                           ; INTERRUPTION) HOWSOEVER CAUSED AND ON ANY THEORY OF LIABILITY, WHETHER IN CONTRACT, ST
      +                          RICT
    74                           ; LIABILITY, OR TORT (INCLUDING NEGLIGENCE OR OTHERWISE) ARISING IN ANY WAY OUT OF THE U
      +                          SE OF
    75                           ; THIS SOFTWARE, EVEN IF ADVISED OF THE POSSIBILITY OF SUCH DAMAGE.
    76                           ; 
    77                           ; 
    78                           ; Code-generator required, PIC16F18346 Definitions
    79                           ; 
    80                           ; SFR Addresses
    81  0000                     	;# 
    82  0001                     	;# 
    83  0002                     	;# 
    84  0003                     	;# 
    85  0004                     	;# 
    86  0005                     	;# 
    87  0006                     	;# 
    88  0007                     	;# 
    89  0008                     	;# 
    90  0009                     	;# 
    91  000A                     	;# 
    92  000B                     	;# 
    93  000C                     	;# 
    94  000D                     	;# 
    95  000E                     	;# 
    96  0010                     	;# 
    97  0011                     	;# 
    98  0012                     	;# 
    99  0013                     	;# 
   100  0014                     	;# 
   101  0015                     	;# 
   102  0015                     	;# 
   103  0016                     	;# 
   104  0016                     	;# 
   105  0017                     	;# 
   106  0018                     	;# 
   107  0019                     	;# 
   108  0019                     	;# 
   109  001A                     	;# 
   110  001B                     	;# 
   111  001C                     	;# 
   112  001D                     	;# 
   113  001E                     	;# 
   114  001F                     	;# 
   115  008C                     	;# 
   116  008D                     	;# 
   117  008E                     	;# 
   118  0090                     	;# 
   119  0091                     	;# 
   120  0092                     	;# 
   121  0093                     	;# 
   122  0094                     	;# 
   123  0097                     	;# 
   124  009B                     	;# 
   125  009B                     	;# 
   126  009C                     	;# 
   127  009D                     	;# 
   128  009E                     	;# 
   129  009F                     	;# 
   130  010C                     	;# 
   131  010D                     	;# 
   132  010E                     	;# 
   133  0111                     	;# 
   134  0112                     	;# 
   135  0113                     	;# 
   136  0114                     	;# 
   137  0115                     	;# 
   138  0116                     	;# 
   139  0117                     	;# 
   140  0118                     	;# 
   141  0119                     	;# 
   142  018C                     	;# 
   143  018D                     	;# 
   144  018E                     	;# 
   145  0197                     	;# 
   146  0199                     	;# 
   147  0199                     	;# 
   148  0199                     	;# 
   149  019A                     	;# 
   150  019A                     	;# 
   151  019A                     	;# 
   152  019B                     	;# 
   153  019B                     	;# 
   154  019B                     	;# 
   155  019B                     	;# 
   156  019B                     	;# 
   157  019C                     	;# 
   158  019C                     	;# 
   159  019C                     	;# 
   160  019D                     	;# 
   161  019D                     	;# 
   162  019D                     	;# 
   163  019E                     	;# 
   164  019E                     	;# 
   165  019E                     	;# 
   166  019F                     	;# 
   167  019F                     	;# 
   168  019F                     	;# 
   169  019F                     	;# 
   170  019F                     	;# 
   171  020C                     	;# 
   172  020D                     	;# 
   173  020E                     	;# 
   174  0211                     	;# 
   175  0211                     	;# 
   176  0212                     	;# 
   177  0212                     	;# 
   178  0213                     	;# 
   179  0213                     	;# 
   180  0214                     	;# 
   181  0214                     	;# 
   182  0215                     	;# 
   183  0215                     	;# 
   184  0215                     	;# 
   185  0215                     	;# 
   186  0216                     	;# 
   187  0216                     	;# 
   188  0217                     	;# 
   189  0217                     	;# 
   190  0219                     	;# 
   191  021A                     	;# 
   192  021B                     	;# 
   193  021C                     	;# 
   194  021D                     	;# 
   195  021D                     	;# 
   196  021E                     	;# 
   197  021F                     	;# 
   198  028C                     	;# 
   199  028D                     	;# 
   200  028E                     	;# 
   201  0291                     	;# 
   202  0291                     	;# 
   203  0292                     	;# 
   204  0293                     	;# 
   205  0294                     	;# 
   206  0295                     	;# 
   207  0295                     	;# 
   208  0296                     	;# 
   209  0297                     	;# 
   210  0298                     	;# 
   211  029F                     	;# 
   212  030C                     	;# 
   213  030D                     	;# 
   214  030E                     	;# 
   215  0311                     	;# 
   216  0311                     	;# 
   217  0312                     	;# 
   218  0313                     	;# 
   219  0314                     	;# 
   220  0315                     	;# 
   221  0315                     	;# 
   222  0316                     	;# 
   223  0317                     	;# 
   224  0318                     	;# 
   225  038C                     	;# 
   226  038D                     	;# 
   227  038E                     	;# 
   228  0391                     	;# 
   229  0392                     	;# 
   230  0393                     	;# 
   231  0394                     	;# 
   232  0395                     	;# 
   233  0396                     	;# 
   234  0397                     	;# 
   235  0398                     	;# 
   236  0399                     	;# 
   237  039A                     	;# 
   238  039C                     	;# 
   239  039D                     	;# 
   240  039E                     	;# 
   241  039F                     	;# 
   242  0411                     	;# 
   243  0411                     	;# 
   244  0412                     	;# 
   245  0413                     	;# 
   246  0414                     	;# 
   247  0415                     	;# 
   248  0416                     	;# 
   249  0417                     	;# 
   250  0418                     	;# 
   251  0418                     	;# 
   252  0419                     	;# 
   253  041A                     	;# 
   254  041B                     	;# 
   255  041C                     	;# 
   256  041D                     	;# 
   257  041E                     	;# 
   258  041F                     	;# 
   259  0498                     	;# 
   260  0498                     	;# 
   261  0499                     	;# 
   262  049A                     	;# 
   263  049B                     	;# 
   264  049B                     	;# 
   265  049C                     	;# 
   266  049D                     	;# 
   267  049E                     	;# 
   268  049F                     	;# 
   269  0617                     	;# 
   270  0618                     	;# 
   271  0619                     	;# 
   272  0619                     	;# 
   273  061A                     	;# 
   274  061B                     	;# 
   275  061C                     	;# 
   276  061C                     	;# 
   277  061F                     	;# 
   278  0691                     	;# 
   279  0692                     	;# 
   280  0693                     	;# 
   281  0694                     	;# 
   282  0695                     	;# 
   283  0696                     	;# 
   284  0697                     	;# 
   285  0698                     	;# 
   286  0699                     	;# 
   287  0711                     	;# 
   288  0712                     	;# 
   289  0713                     	;# 
   290  0714                     	;# 
   291  0715                     	;# 
   292  0716                     	;# 
   293  0717                     	;# 
   294  0718                     	;# 
   295  0719                     	;# 
   296  0891                     	;# 
   297  0891                     	;# 
   298  0891                     	;# 
   299  0891                     	;# 
   300  0891                     	;# 
   301  0891                     	;# 
   302  0892                     	;# 
   303  0892                     	;# 
   304  0892                     	;# 
   305  0893                     	;# 
   306  0893                     	;# 
   307  0893                     	;# 
   308  0893                     	;# 
   309  0893                     	;# 
   310  0893                     	;# 
   311  0894                     	;# 
   312  0894                     	;# 
   313  0894                     	;# 
   314  0895                     	;# 
   315  0895                     	;# 
   316  0895                     	;# 
   317  0896                     	;# 
   318  0896                     	;# 
   319  0896                     	;# 
   320  089B                     	;# 
   321  0911                     	;# 
   322  0912                     	;# 
   323  0913                     	;# 
   324  0914                     	;# 
   325  0915                     	;# 
   326  0916                     	;# 
   327  0918                     	;# 
   328  0919                     	;# 
   329  091A                     	;# 
   330  091B                     	;# 
   331  091C                     	;# 
   332  091D                     	;# 
   333  091E                     	;# 
   334  091F                     	;# 
   335  0E0F                     	;# 
   336  0E10                     	;# 
   337  0E11                     	;# 
   338  0E12                     	;# 
   339  0E13                     	;# 
   340  0E14                     	;# 
   341  0E15                     	;# 
   342  0E16                     	;# 
   343  0E17                     	;# 
   344  0E18                     	;# 
   345  0E19                     	;# 
   346  0E1A                     	;# 
   347  0E1B                     	;# 
   348  0E1C                     	;# 
   349  0E1D                     	;# 
   350  0E1E                     	;# 
   351  0E1F                     	;# 
   352  0E20                     	;# 
   353  0E21                     	;# 
   354  0E22                     	;# 
   355  0E24                     	;# 
   356  0E25                     	;# 
   357  0E28                     	;# 
   358  0E29                     	;# 
   359  0E2A                     	;# 
   360  0E2B                     	;# 
   361  0E2C                     	;# 
   362  0E2D                     	;# 
   363  0E2E                     	;# 
   364  0E2F                     	;# 
   365  0E90                     	;# 
   366  0E91                     	;# 
   367  0E92                     	;# 
   368  0E94                     	;# 
   369  0E95                     	;# 
   370  0E9C                     	;# 
   371  0E9D                     	;# 
   372  0E9E                     	;# 
   373  0E9F                     	;# 
   374  0EA0                     	;# 
   375  0EA1                     	;# 
   376  0EA2                     	;# 
   377  0EA3                     	;# 
   378  0EA4                     	;# 
   379  0EA5                     	;# 
   380  0EA6                     	;# 
   381  0EA7                     	;# 
   382  0F0F                     	;# 
   383  0F10                     	;# 
   384  0F11                     	;# 
   385  0F12                     	;# 
   386  0F13                     	;# 
   387  0F14                     	;# 
   388  0F15                     	;# 
   389  0F16                     	;# 
   390  0F17                     	;# 
   391  0F18                     	;# 
   392  0F19                     	;# 
   393  0F1A                     	;# 
   394  0F1B                     	;# 
   395  0F1C                     	;# 
   396  0F1D                     	;# 
   397  0F1E                     	;# 
   398  0F1F                     	;# 
   399  0F20                     	;# 
   400  0F21                     	;# 
   401  0F22                     	;# 
   402  0F23                     	;# 
   403  0F24                     	;# 
   404  0F25                     	;# 
   405  0F26                     	;# 
   406  0F27                     	;# 
   407  0F28                     	;# 
   408  0F29                     	;# 
   409  0F2A                     	;# 
   410  0F2B                     	;# 
   411  0F2C                     	;# 
   412  0F2D                     	;# 
   413  0F2E                     	;# 
   414  0F2F                     	;# 
   415  0F30                     	;# 
   416  0F31                     	;# 
   417  0F32                     	;# 
   418  0F33                     	;# 
   419  0F34                     	;# 
   420  0F35                     	;# 
   421  0F36                     	;# 
   422  0F37                     	;# 
   423  0FE4                     	;# 
   424  0FE5                     	;# 
   425  0FE6                     	;# 
   426  0FE7                     	;# 
   427  0FE8                     	;# 
   428  0FE9                     	;# 
   429  0FEA                     	;# 
   430  0FEB                     	;# 
   431  0FED                     	;# 
   432  0FEE                     	;# 
   433  0FEF                     	;# 
   434  0000                     	;# 
   435  0001                     	;# 
   436  0002                     	;# 
   437  0003                     	;# 
   438  0004                     	;# 
   439  0005                     	;# 
   440  0006                     	;# 
   441  0007                     	;# 
   442  0008                     	;# 
   443  0009                     	;# 
   444  000A                     	;# 
   445  000B                     	;# 
   446  000C                     	;# 
   447  000D                     	;# 
   448  000E                     	;# 
   449  0010                     	;# 
   450  0011                     	;# 
   451  0012                     	;# 
   452  0013                     	;# 
   453  0014                     	;# 
   454  0015                     	;# 
   455  0015                     	;# 
   456  0016                     	;# 
   457  0016                     	;# 
   458  0017                     	;# 
   459  0018                     	;# 
   460  0019                     	;# 
   461  0019                     	;# 
   462  001A                     	;# 
   463  001B                     	;# 
   464  001C                     	;# 
   465  001D                     	;# 
   466  001E                     	;# 
   467  001F                     	;# 
   468  008C                     	;# 
   469  008D                     	;# 
   470  008E                     	;# 
   471  0090                     	;# 
   472  0091                     	;# 
   473  0092                     	;# 
   474  0093                     	;# 
   475  0094                     	;# 
   476  0097                     	;# 
   477  009B                     	;# 
   478  009B                     	;# 
   479  009C                     	;# 
   480  009D                     	;# 
   481  009E                     	;# 
   482  009F                     	;# 
   483  010C                     	;# 
   484  010D                     	;# 
   485  010E                     	;# 
   486  0111                     	;# 
   487  0112                     	;# 
   488  0113                     	;# 
   489  0114                     	;# 
   490  0115                     	;# 
   491  0116                     	;# 
   492  0117                     	;# 
   493  0118                     	;# 
   494  0119                     	;# 
   495  018C                     	;# 
   496  018D                     	;# 
   497  018E                     	;# 
   498  0197                     	;# 
   499  0199                     	;# 
   500  0199                     	;# 
   501  0199                     	;# 
   502  019A                     	;# 
   503  019A                     	;# 
   504  019A                     	;# 
   505  019B                     	;# 
   506  019B                     	;# 
   507  019B                     	;# 
   508  019B                     	;# 
   509  019B                     	;# 
   510  019C                     	;# 
   511  019C                     	;# 
   512  019C                     	;# 
   513  019D                     	;# 
   514  019D                     	;# 
   515  019D                     	;# 
   516  019E                     	;# 
   517  019E                     	;# 
   518  019E                     	;# 
   519  019F                     	;# 
   520  019F                     	;# 
   521  019F                     	;# 
   522  019F                     	;# 
   523  019F                     	;# 
   524  020C                     	;# 
   525  020D                     	;# 
   526  020E                     	;# 
   527  0211                     	;# 
   528  0211                     	;# 
   529  0212                     	;# 
   530  0212                     	;# 
   531  0213                     	;# 
   532  0213                     	;# 
   533  0214                     	;# 
   534  0214                     	;# 
   535  0215                     	;# 
   536  0215                     	;# 
   537  0215                     	;# 
   538  0215                     	;# 
   539  0216                     	;# 
   540  0216                     	;# 
   541  0217                     	;# 
   542  0217                     	;# 
   543  0219                     	;# 
   544  021A                     	;# 
   545  021B                     	;# 
   546  021C                     	;# 
   547  021D                     	;# 
   548  021D                     	;# 
   549  021E                     	;# 
   550  021F                     	;# 
   551  028C                     	;# 
   552  028D                     	;# 
   553  028E                     	;# 
   554  0291                     	;# 
   555  0291                     	;# 
   556  0292                     	;# 
   557  0293                     	;# 
   558  0294                     	;# 
   559  0295                     	;# 
   560  0295                     	;# 
   561  0296                     	;# 
   562  0297                     	;# 
   563  0298                     	;# 
   564  029F                     	;# 
   565  030C                     	;# 
   566  030D                     	;# 
   567  030E                     	;# 
   568  0311                     	;# 
   569  0311                     	;# 
   570  0312                     	;# 
   571  0313                     	;# 
   572  0314                     	;# 
   573  0315                     	;# 
   574  0315                     	;# 
   575  0316                     	;# 
   576  0317                     	;# 
   577  0318                     	;# 
   578  038C                     	;# 
   579  038D                     	;# 
   580  038E                     	;# 
   581  0391                     	;# 
   582  0392                     	;# 
   583  0393                     	;# 
   584  0394                     	;# 
   585  0395                     	;# 
   586  0396                     	;# 
   587  0397                     	;# 
   588  0398                     	;# 
   589  0399                     	;# 
   590  039A                     	;# 
   591  039C                     	;# 
   592  039D                     	;# 
   593  039E                     	;# 
   594  039F                     	;# 
   595  0411                     	;# 
   596  0411                     	;# 
   597  0412                     	;# 
   598  0413                     	;# 
   599  0414                     	;# 
   600  0415                     	;# 
   601  0416                     	;# 
   602  0417                     	;# 
   603  0418                     	;# 
   604  0418                     	;# 
   605  0419                     	;# 
   606  041A                     	;# 
   607  041B                     	;# 
   608  041C                     	;# 
   609  041D                     	;# 
   610  041E                     	;# 
   611  041F                     	;# 
   612  0498                     	;# 
   613  0498                     	;# 
   614  0499                     	;# 
   615  049A                     	;# 
   616  049B                     	;# 
   617  049B                     	;# 
   618  049C                     	;# 
   619  049D                     	;# 
   620  049E                     	;# 
   621  049F                     	;# 
   622  0617                     	;# 
   623  0618                     	;# 
   624  0619                     	;# 
   625  0619                     	;# 
   626  061A                     	;# 
   627  061B                     	;# 
   628  061C                     	;# 
   629  061C                     	;# 
   630  061F                     	;# 
   631  0691                     	;# 
   632  0692                     	;# 
   633  0693                     	;# 
   634  0694                     	;# 
   635  0695                     	;# 
   636  0696                     	;# 
   637  0697                     	;# 
   638  0698                     	;# 
   639  0699                     	;# 
   640  0711                     	;# 
   641  0712                     	;# 
   642  0713                     	;# 
   643  0714                     	;# 
   644  0715                     	;# 
   645  0716                     	;# 
   646  0717                     	;# 
   647  0718                     	;# 
   648  0719                     	;# 
   649  0891                     	;# 
   650  0891                     	;# 
   651  0891                     	;# 
   652  0891                     	;# 
   653  0891                     	;# 
   654  0891                     	;# 
   655  0892                     	;# 
   656  0892                     	;# 
   657  0892                     	;# 
   658  0893                     	;# 
   659  0893                     	;# 
   660  0893                     	;# 
   661  0893                     	;# 
   662  0893                     	;# 
   663  0893                     	;# 
   664  0894                     	;# 
   665  0894                     	;# 
   666  0894                     	;# 
   667  0895                     	;# 
   668  0895                     	;# 
   669  0895                     	;# 
   670  0896                     	;# 
   671  0896                     	;# 
   672  0896                     	;# 
   673  089B                     	;# 
   674  0911                     	;# 
   675  0912                     	;# 
   676  0913                     	;# 
   677  0914                     	;# 
   678  0915                     	;# 
   679  0916                     	;# 
   680  0918                     	;# 
   681  0919                     	;# 
   682  091A                     	;# 
   683  091B                     	;# 
   684  091C                     	;# 
   685  091D                     	;# 
   686  091E                     	;# 
   687  091F                     	;# 
   688  0E0F                     	;# 
   689  0E10                     	;# 
   690  0E11                     	;# 
   691  0E12                     	;# 
   692  0E13                     	;# 
   693  0E14                     	;# 
   694  0E15                     	;# 
   695  0E16                     	;# 
   696  0E17                     	;# 
   697  0E18                     	;# 
   698  0E19                     	;# 
   699  0E1A                     	;# 
   700  0E1B                     	;# 
   701  0E1C                     	;# 
   702  0E1D                     	;# 
   703  0E1E                     	;# 
   704  0E1F                     	;# 
   705  0E20                     	;# 
   706  0E21                     	;# 
   707  0E22                     	;# 
   708  0E24                     	;# 
   709  0E25                     	;# 
   710  0E28                     	;# 
   711  0E29                     	;# 
   712  0E2A                     	;# 
   713  0E2B                     	;# 
   714  0E2C                     	;# 
   715  0E2D                     	;# 
   716  0E2E                     	;# 
   717  0E2F                     	;# 
   718  0E90                     	;# 
   719  0E91                     	;# 
   720  0E92                     	;# 
   721  0E94                     	;# 
   722  0E95                     	;# 
   723  0E9C                     	;# 
   724  0E9D                     	;# 
   725  0E9E                     	;# 
   726  0E9F                     	;# 
   727  0EA0                     	;# 
   728  0EA1                     	;# 
   729  0EA2                     	;# 
   730  0EA3                     	;# 
   731  0EA4                     	;# 
   732  0EA5                     	;# 
   733  0EA6                     	;# 
   734  0EA7                     	;# 
   735  0F0F                     	;# 
   736  0F10                     	;# 
   737  0F11                     	;# 
   738  0F12                     	;# 
   739  0F13                     	;# 
   740  0F14                     	;# 
   741  0F15                     	;# 
   742  0F16                     	;# 
   743  0F17                     	;# 
   744  0F18                     	;# 
   745  0F19                     	;# 
   746  0F1A                     	;# 
   747  0F1B                     	;# 
   748  0F1C                     	;# 
   749  0F1D                     	;# 
   750  0F1E                     	;# 
   751  0F1F                     	;# 
   752  0F20                     	;# 
   753  0F21                     	;# 
   754  0F22                     	;# 
   755  0F23                     	;# 
   756  0F24                     	;# 
   757  0F25                     	;# 
   758  0F26                     	;# 
   759  0F27                     	;# 
   760  0F28                     	;# 
   761  0F29                     	;# 
   762  0F2A                     	;# 
   763  0F2B                     	;# 
   764  0F2C                     	;# 
   765  0F2D                     	;# 
   766  0F2E                     	;# 
   767  0F2F                     	;# 
   768  0F30                     	;# 
   769  0F31                     	;# 
   770  0F32                     	;# 
   771  0F33                     	;# 
   772  0F34                     	;# 
   773  0F35                     	;# 
   774  0F36                     	;# 
   775  0F37                     	;# 
   776  0FE4                     	;# 
   777  0FE5                     	;# 
   778  0FE6                     	;# 
   779  0FE7                     	;# 
   780  0FE8                     	;# 
   781  0FE9                     	;# 
   782  0FEA                     	;# 
   783  0FEB                     	;# 
   784  0FED                     	;# 
   785  0FEE                     	;# 
   786  0FEF                     	;# 
   787  0000                     	;# 
   788  0001                     	;# 
   789  0002                     	;# 
   790  0003                     	;# 
   791  0004                     	;# 
   792  0005                     	;# 
   793  0006                     	;# 
   794  0007                     	;# 
   795  0008                     	;# 
   796  0009                     	;# 
   797  000A                     	;# 
   798  000B                     	;# 
   799  000C                     	;# 
   800  000D                     	;# 
   801  000E                     	;# 
   802  0010                     	;# 
   803  0011                     	;# 
   804  0012                     	;# 
   805  0013                     	;# 
   806  0014                     	;# 
   807  0015                     	;# 
   808  0015                     	;# 
   809  0016                     	;# 
   810  0016                     	;# 
   811  0017                     	;# 
   812  0018                     	;# 
   813  0019                     	;# 
   814  0019                     	;# 
   815  001A                     	;# 
   816  001B                     	;# 
   817  001C                     	;# 
   818  001D                     	;# 
   819  001E                     	;# 
   820  001F                     	;# 
   821  008C                     	;# 
   822  008D                     	;# 
   823  008E                     	;# 
   824  0090                     	;# 
   825  0091                     	;# 
   826  0092                     	;# 
   827  0093                     	;# 
   828  0094                     	;# 
   829  0097                     	;# 
   830  009B                     	;# 
   831  009B                     	;# 
   832  009C                     	;# 
   833  009D                     	;# 
   834  009E                     	;# 
   835  009F                     	;# 
   836  010C                     	;# 
   837  010D                     	;# 
   838  010E                     	;# 
   839  0111                     	;# 
   840  0112                     	;# 
   841  0113                     	;# 
   842  0114                     	;# 
   843  0115                     	;# 
   844  0116                     	;# 
   845  0117                     	;# 
   846  0118                     	;# 
   847  0119                     	;# 
   848  018C                     	;# 
   849  018D                     	;# 
   850  018E                     	;# 
   851  0197                     	;# 
   852  0199                     	;# 
   853  0199                     	;# 
   854  0199                     	;# 
   855  019A                     	;# 
   856  019A                     	;# 
   857  019A                     	;# 
   858  019B                     	;# 
   859  019B                     	;# 
   860  019B                     	;# 
   861  019B                     	;# 
   862  019B                     	;# 
   863  019C                     	;# 
   864  019C                     	;# 
   865  019C                     	;# 
   866  019D                     	;# 
   867  019D                     	;# 
   868  019D                     	;# 
   869  019E                     	;# 
   870  019E                     	;# 
   871  019E                     	;# 
   872  019F                     	;# 
   873  019F                     	;# 
   874  019F                     	;# 
   875  019F                     	;# 
   876  019F                     	;# 
   877  020C                     	;# 
   878  020D                     	;# 
   879  020E                     	;# 
   880  0211                     	;# 
   881  0211                     	;# 
   882  0212                     	;# 
   883  0212                     	;# 
   884  0213                     	;# 
   885  0213                     	;# 
   886  0214                     	;# 
   887  0214                     	;# 
   888  0215                     	;# 
   889  0215                     	;# 
   890  0215                     	;# 
   891  0215                     	;# 
   892  0216                     	;# 
   893  0216                     	;# 
   894  0217                     	;# 
   895  0217                     	;# 
   896  0219                     	;# 
   897  021A                     	;# 
   898  021B                     	;# 
   899  021C                     	;# 
   900  021D                     	;# 
   901  021D                     	;# 
   902  021E                     	;# 
   903  021F                     	;# 
   904  028C                     	;# 
   905  028D                     	;# 
   906  028E                     	;# 
   907  0291                     	;# 
   908  0291                     	;# 
   909  0292                     	;# 
   910  0293                     	;# 
   911  0294                     	;# 
   912  0295                     	;# 
   913  0295                     	;# 
   914  0296                     	;# 
   915  0297                     	;# 
   916  0298                     	;# 
   917  029F                     	;# 
   918  030C                     	;# 
   919  030D                     	;# 
   920  030E                     	;# 
   921  0311                     	;# 
   922  0311                     	;# 
   923  0312                     	;# 
   924  0313                     	;# 
   925  0314                     	;# 
   926  0315                     	;# 
   927  0315                     	;# 
   928  0316                     	;# 
   929  0317                     	;# 
   930  0318                     	;# 
   931  038C                     	;# 
   932  038D                     	;# 
   933  038E                     	;# 
   934  0391                     	;# 
   935  0392                     	;# 
   936  0393                     	;# 
   937  0394                     	;# 
   938  0395                     	;# 
   939  0396                     	;# 
   940  0397                     	;# 
   941  0398                     	;# 
   942  0399                     	;# 
   943  039A                     	;# 
   944  039C                     	;# 
   945  039D                     	;# 
   946  039E                     	;# 
   947  039F                     	;# 
   948  0411                     	;# 
   949  0411                     	;# 
   950  0412                     	;# 
   951  0413                     	;# 
   952  0414                     	;# 
   953  0415                     	;# 
   954  0416                     	;# 
   955  0417                     	;# 
   956  0418                     	;# 
   957  0418                     	;# 
   958  0419                     	;# 
   959  041A                     	;# 
   960  041B                     	;# 
   961  041C                     	;# 
   962  041D                     	;# 
   963  041E                     	;# 
   964  041F                     	;# 
   965  0498                     	;# 
   966  0498                     	;# 
   967  0499                     	;# 
   968  049A                     	;# 
   969  049B                     	;# 
   970  049B                     	;# 
   971  049C                     	;# 
   972  049D                     	;# 
   973  049E                     	;# 
   974  049F                     	;# 
   975  0617                     	;# 
   976  0618                     	;# 
   977  0619                     	;# 
   978  0619                     	;# 
   979  061A                     	;# 
   980  061B                     	;# 
   981  061C                     	;# 
   982  061C                     	;# 
   983  061F                     	;# 
   984  0691                     	;# 
   985  0692                     	;# 
   986  0693                     	;# 
   987  0694                     	;# 
   988  0695                     	;# 
   989  0696                     	;# 
   990  0697                     	;# 
   991  0698                     	;# 
   992  0699                     	;# 
   993  0711                     	;# 
   994  0712                     	;# 
   995  0713                     	;# 
   996  0714                     	;# 
   997  0715                     	;# 
   998  0716                     	;# 
   999  0717                     	;# 
  1000  0718                     	;# 
  1001  0719                     	;# 
  1002  0891                     	;# 
  1003  0891                     	;# 
  1004  0891                     	;# 
  1005  0891                     	;# 
  1006  0891                     	;# 
  1007  0891                     	;# 
  1008  0892                     	;# 
  1009  0892                     	;# 
  1010  0892                     	;# 
  1011  0893                     	;# 
  1012  0893                     	;# 
  1013  0893                     	;# 
  1014  0893                     	;# 
  1015  0893                     	;# 
  1016  0893                     	;# 
  1017  0894                     	;# 
  1018  0894                     	;# 
  1019  0894                     	;# 
  1020  0895                     	;# 
  1021  0895                     	;# 
  1022  0895                     	;# 
  1023  0896                     	;# 
  1024  0896                     	;# 
  1025  0896                     	;# 
  1026  089B                     	;# 
  1027  0911                     	;# 
  1028  0912                     	;# 
  1029  0913                     	;# 
  1030  0914                     	;# 
  1031  0915                     	;# 
  1032  0916                     	;# 
  1033  0918                     	;# 
  1034  0919                     	;# 
  1035  091A                     	;# 
  1036  091B                     	;# 
  1037  091C                     	;# 
  1038  091D                     	;# 
  1039  091E                     	;# 
  1040  091F                     	;# 
  1041  0E0F                     	;# 
  1042  0E10                     	;# 
  1043  0E11                     	;# 
  1044  0E12                     	;# 
  1045  0E13                     	;# 
  1046  0E14                     	;# 
  1047  0E15                     	;# 
  1048  0E16                     	;# 
  1049  0E17                     	;# 
  1050  0E18                     	;# 
  1051  0E19                     	;# 
  1052  0E1A                     	;# 
  1053  0E1B                     	;# 
  1054  0E1C                     	;# 
  1055  0E1D                     	;# 
  1056  0E1E                     	;# 
  1057  0E1F                     	;# 
  1058  0E20                     	;# 
  1059  0E21                     	;# 
  1060  0E22                     	;# 
  1061  0E24                     	;# 
  1062  0E25                     	;# 
  1063  0E28                     	;# 
  1064  0E29                     	;# 
  1065  0E2A                     	;# 
  1066  0E2B                     	;# 
  1067  0E2C                     	;# 
  1068  0E2D                     	;# 
  1069  0E2E                     	;# 
  1070  0E2F                     	;# 
  1071  0E90                     	;# 
  1072  0E91                     	;# 
  1073  0E92                     	;# 
  1074  0E94                     	;# 
  1075  0E95                     	;# 
  1076  0E9C                     	;# 
  1077  0E9D                     	;# 
  1078  0E9E                     	;# 
  1079  0E9F                     	;# 
  1080  0EA0                     	;# 
  1081  0EA1                     	;# 
  1082  0EA2                     	;# 
  1083  0EA3                     	;# 
  1084  0EA4                     	;# 
  1085  0EA5                     	;# 
  1086  0EA6                     	;# 
  1087  0EA7                     	;# 
  1088  0F0F                     	;# 
  1089  0F10                     	;# 
  1090  0F11                     	;# 
  1091  0F12                     	;# 
  1092  0F13                     	;# 
  1093  0F14                     	;# 
  1094  0F15                     	;# 
  1095  0F16                     	;# 
  1096  0F17                     	;# 
  1097  0F18                     	;# 
  1098  0F19                     	;# 
  1099  0F1A                     	;# 
  1100  0F1B                     	;# 
  1101  0F1C                     	;# 
  1102  0F1D                     	;# 
  1103  0F1E                     	;# 
  1104  0F1F                     	;# 
  1105  0F20                     	;# 
  1106  0F21                     	;# 
  1107  0F22                     	;# 
  1108  0F23                     	;# 
  1109  0F24                     	;# 
  1110  0F25                     	;# 
  1111  0F26                     	;# 
  1112  0F27                     	;# 
  1113  0F28                     	;# 
  1114  0F29                     	;# 
  1115  0F2A                     	;# 
  1116  0F2B                     	;# 
  1117  0F2C                     	;# 
  1118  0F2D                     	;# 
  1119  0F2E                     	;# 
  1120  0F2F                     	;# 
  1121  0F30                     	;# 
  1122  0F31                     	;# 
  1123  0F32                     	;# 
  1124  0F33                     	;# 
  1125  0F34                     	;# 
  1126  0F35                     	;# 
  1127  0F36                     	;# 
  1128  0F37                     	;# 
  1129  0FE4                     	;# 
  1130  0FE5                     	;# 
  1131  0FE6                     	;# 
  1132  0FE7                     	;# 
  1133  0FE8                     	;# 
  1134  0FE9                     	;# 
  1135  0FEA                     	;# 
  1136  0FEB                     	;# 
  1137  0FED                     	;# 
  1138  0FEE                     	;# 
  1139  0FEF                     	;# 
  1140  0000                     	;# 
  1141  0001                     	;# 
  1142  0002                     	;# 
  1143  0003                     	;# 
  1144  0004                     	;# 
  1145  0005                     	;# 
  1146  0006                     	;# 
  1147  0007                     	;# 
  1148  0008                     	;# 
  1149  0009                     	;# 
  1150  000A                     	;# 
  1151  000B                     	;# 
  1152  000C                     	;# 
  1153  000D                     	;# 
  1154  000E                     	;# 
  1155  0010                     	;# 
  1156  0011                     	;# 
  1157  0012                     	;# 
  1158  0013                     	;# 
  1159  0014                     	;# 
  1160  0015                     	;# 
  1161  0015                     	;# 
  1162  0016                     	;# 
  1163  0016                     	;# 
  1164  0017                     	;# 
  1165  0018                     	;# 
  1166  0019                     	;# 
  1167  0019                     	;# 
  1168  001A                     	;# 
  1169  001B                     	;# 
  1170  001C                     	;# 
  1171  001D                     	;# 
  1172  001E                     	;# 
  1173  001F                     	;# 
  1174  008C                     	;# 
  1175  008D                     	;# 
  1176  008E                     	;# 
  1177  0090                     	;# 
  1178  0091                     	;# 
  1179  0092                     	;# 
  1180  0093                     	;# 
  1181  0094                     	;# 
  1182  0097                     	;# 
  1183  009B                     	;# 
  1184  009B                     	;# 
  1185  009C                     	;# 
  1186  009D                     	;# 
  1187  009E                     	;# 
  1188  009F                     	;# 
  1189  010C                     	;# 
  1190  010D                     	;# 
  1191  010E                     	;# 
  1192  0111                     	;# 
  1193  0112                     	;# 
  1194  0113                     	;# 
  1195  0114                     	;# 
  1196  0115                     	;# 
  1197  0116                     	;# 
  1198  0117                     	;# 
  1199  0118                     	;# 
  1200  0119                     	;# 
  1201  018C                     	;# 
  1202  018D                     	;# 
  1203  018E                     	;# 
  1204  0197                     	;# 
  1205  0199                     	;# 
  1206  0199                     	;# 
  1207  0199                     	;# 
  1208  019A                     	;# 
  1209  019A                     	;# 
  1210  019A                     	;# 
  1211  019B                     	;# 
  1212  019B                     	;# 
  1213  019B                     	;# 
  1214  019B                     	;# 
  1215  019B                     	;# 
  1216  019C                     	;# 
  1217  019C                     	;# 
  1218  019C                     	;# 
  1219  019D                     	;# 
  1220  019D                     	;# 
  1221  019D                     	;# 
  1222  019E                     	;# 
  1223  019E                     	;# 
  1224  019E                     	;# 
  1225  019F                     	;# 
  1226  019F                     	;# 
  1227  019F                     	;# 
  1228  019F                     	;# 
  1229  019F                     	;# 
  1230  020C                     	;# 
  1231  020D                     	;# 
  1232  020E                     	;# 
  1233  0211                     	;# 
  1234  0211                     	;# 
  1235  0212                     	;# 
  1236  0212                     	;# 
  1237  0213                     	;# 
  1238  0213                     	;# 
  1239  0214                     	;# 
  1240  0214                     	;# 
  1241  0215                     	;# 
  1242  0215                     	;# 
  1243  0215                     	;# 
  1244  0215                     	;# 
  1245  0216                     	;# 
  1246  0216                     	;# 
  1247  0217                     	;# 
  1248  0217                     	;# 
  1249  0219                     	;# 
  1250  021A                     	;# 
  1251  021B                     	;# 
  1252  021C                     	;# 
  1253  021D                     	;# 
  1254  021D                     	;# 
  1255  021E                     	;# 
  1256  021F                     	;# 
  1257  028C                     	;# 
  1258  028D                     	;# 
  1259  028E                     	;# 
  1260  0291                     	;# 
  1261  0291                     	;# 
  1262  0292                     	;# 
  1263  0293                     	;# 
  1264  0294                     	;# 
  1265  0295                     	;# 
  1266  0295                     	;# 
  1267  0296                     	;# 
  1268  0297                     	;# 
  1269  0298                     	;# 
  1270  029F                     	;# 
  1271  030C                     	;# 
  1272  030D                     	;# 
  1273  030E                     	;# 
  1274  0311                     	;# 
  1275  0311                     	;# 
  1276  0312                     	;# 
  1277  0313                     	;# 
  1278  0314                     	;# 
  1279  0315                     	;# 
  1280  0315                     	;# 
  1281  0316                     	;# 
  1282  0317                     	;# 
  1283  0318                     	;# 
  1284  038C                     	;# 
  1285  038D                     	;# 
  1286  038E                     	;# 
  1287  0391                     	;# 
  1288  0392                     	;# 
  1289  0393                     	;# 
  1290  0394                     	;# 
  1291  0395                     	;# 
  1292  0396                     	;# 
  1293  0397                     	;# 
  1294  0398                     	;# 
  1295  0399                     	;# 
  1296  039A                     	;# 
  1297  039C                     	;# 
  1298  039D                     	;# 
  1299  039E                     	;# 
  1300  039F                     	;# 
  1301  0411                     	;# 
  1302  0411                     	;# 
  1303  0412                     	;# 
  1304  0413                     	;# 
  1305  0414                     	;# 
  1306  0415                     	;# 
  1307  0416                     	;# 
  1308  0417                     	;# 
  1309  0418                     	;# 
  1310  0418                     	;# 
  1311  0419                     	;# 
  1312  041A                     	;# 
  1313  041B                     	;# 
  1314  041C                     	;# 
  1315  041D                     	;# 
  1316  041E                     	;# 
  1317  041F                     	;# 
  1318  0498                     	;# 
  1319  0498                     	;# 
  1320  0499                     	;# 
  1321  049A                     	;# 
  1322  049B                     	;# 
  1323  049B                     	;# 
  1324  049C                     	;# 
  1325  049D                     	;# 
  1326  049E                     	;# 
  1327  049F                     	;# 
  1328  0617                     	;# 
  1329  0618                     	;# 
  1330  0619                     	;# 
  1331  0619                     	;# 
  1332  061A                     	;# 
  1333  061B                     	;# 
  1334  061C                     	;# 
  1335  061C                     	;# 
  1336  061F                     	;# 
  1337  0691                     	;# 
  1338  0692                     	;# 
  1339  0693                     	;# 
  1340  0694                     	;# 
  1341  0695                     	;# 
  1342  0696                     	;# 
  1343  0697                     	;# 
  1344  0698                     	;# 
  1345  0699                     	;# 
  1346  0711                     	;# 
  1347  0712                     	;# 
  1348  0713                     	;# 
  1349  0714                     	;# 
  1350  0715                     	;# 
  1351  0716                     	;# 
  1352  0717                     	;# 
  1353  0718                     	;# 
  1354  0719                     	;# 
  1355  0891                     	;# 
  1356  0891                     	;# 
  1357  0891                     	;# 
  1358  0891                     	;# 
  1359  0891                     	;# 
  1360  0891                     	;# 
  1361  0892                     	;# 
  1362  0892                     	;# 
  1363  0892                     	;# 
  1364  0893                     	;# 
  1365  0893                     	;# 
  1366  0893                     	;# 
  1367  0893                     	;# 
  1368  0893                     	;# 
  1369  0893                     	;# 
  1370  0894                     	;# 
  1371  0894                     	;# 
  1372  0894                     	;# 
  1373  0895                     	;# 
  1374  0895                     	;# 
  1375  0895                     	;# 
  1376  0896                     	;# 
  1377  0896                     	;# 
  1378  0896                     	;# 
  1379  089B                     	;# 
  1380  0911                     	;# 
  1381  0912                     	;# 
  1382  0913                     	;# 
  1383  0914                     	;# 
  1384  0915                     	;# 
  1385  0916                     	;# 
  1386  0918                     	;# 
  1387  0919                     	;# 
  1388  091A                     	;# 
  1389  091B                     	;# 
  1390  091C                     	;# 
  1391  091D                     	;# 
  1392  091E                     	;# 
  1393  091F                     	;# 
  1394  0E0F                     	;# 
  1395  0E10                     	;# 
  1396  0E11                     	;# 
  1397  0E12                     	;# 
  1398  0E13                     	;# 
  1399  0E14                     	;# 
  1400  0E15                     	;# 
  1401  0E16                     	;# 
  1402  0E17                     	;# 
  1403  0E18                     	;# 
  1404  0E19                     	;# 
  1405  0E1A                     	;# 
  1406  0E1B                     	;# 
  1407  0E1C                     	;# 
  1408  0E1D                     	;# 
  1409  0E1E                     	;# 
  1410  0E1F                     	;# 
  1411  0E20                     	;# 
  1412  0E21                     	;# 
  1413  0E22                     	;# 
  1414  0E24                     	;# 
  1415  0E25                     	;# 
  1416  0E28                     	;# 
  1417  0E29                     	;# 
  1418  0E2A                     	;# 
  1419  0E2B                     	;# 
  1420  0E2C                     	;# 
  1421  0E2D                     	;# 
  1422  0E2E                     	;# 
  1423  0E2F                     	;# 
  1424  0E90                     	;# 
  1425  0E91                     	;# 
  1426  0E92                     	;# 
  1427  0E94                     	;# 
  1428  0E95                     	;# 
  1429  0E9C                     	;# 
  1430  0E9D                     	;# 
  1431  0E9E                     	;# 
  1432  0E9F                     	;# 
  1433  0EA0                     	;# 
  1434  0EA1                     	;# 
  1435  0EA2                     	;# 
  1436  0EA3                     	;# 
  1437  0EA4                     	;# 
  1438  0EA5                     	;# 
  1439  0EA6                     	;# 
  1440  0EA7                     	;# 
  1441  0F0F                     	;# 
  1442  0F10                     	;# 
  1443  0F11                     	;# 
  1444  0F12                     	;# 
  1445  0F13                     	;# 
  1446  0F14                     	;# 
  1447  0F15                     	;# 
  1448  0F16                     	;# 
  1449  0F17                     	;# 
  1450  0F18                     	;# 
  1451  0F19                     	;# 
  1452  0F1A                     	;# 
  1453  0F1B                     	;# 
  1454  0F1C                     	;# 
  1455  0F1D                     	;# 
  1456  0F1E                     	;# 
  1457  0F1F                     	;# 
  1458  0F20                     	;# 
  1459  0F21                     	;# 
  1460  0F22                     	;# 
  1461  0F23                     	;# 
  1462  0F24                     	;# 
  1463  0F25                     	;# 
  1464  0F26                     	;# 
  1465  0F27                     	;# 
  1466  0F28                     	;# 
  1467  0F29                     	;# 
  1468  0F2A                     	;# 
  1469  0F2B                     	;# 
  1470  0F2C                     	;# 
  1471  0F2D                     	;# 
  1472  0F2E                     	;# 
  1473  0F2F                     	;# 
  1474  0F30                     	;# 
  1475  0F31                     	;# 
  1476  0F32                     	;# 
  1477  0F33                     	;# 
  1478  0F34                     	;# 
  1479  0F35                     	;# 
  1480  0F36                     	;# 
  1481  0F37                     	;# 
  1482  0FE4                     	;# 
  1483  0FE5                     	;# 
  1484  0FE6                     	;# 
  1485  0FE7                     	;# 
  1486  0FE8                     	;# 
  1487  0FE9                     	;# 
  1488  0FEA                     	;# 
  1489  0FEB                     	;# 
  1490  0FED                     	;# 
  1491  0FEE                     	;# 
  1492  0FEF                     	;# 
  1493  0000                     	;# 
  1494  0001                     	;# 
  1495  0002                     	;# 
  1496  0003                     	;# 
  1497  0004                     	;# 
  1498  0005                     	;# 
  1499  0006                     	;# 
  1500  0007                     	;# 
  1501  0008                     	;# 
  1502  0009                     	;# 
  1503  000A                     	;# 
  1504  000B                     	;# 
  1505  000C                     	;# 
  1506  000D                     	;# 
  1507  000E                     	;# 
  1508  0010                     	;# 
  1509  0011                     	;# 
  1510  0012                     	;# 
  1511  0013                     	;# 
  1512  0014                     	;# 
  1513  0015                     	;# 
  1514  0015                     	;# 
  1515  0016                     	;# 
  1516  0016                     	;# 
  1517  0017                     	;# 
  1518  0018                     	;# 
  1519  0019                     	;# 
  1520  0019                     	;# 
  1521  001A                     	;# 
  1522  001B                     	;# 
  1523  001C                     	;# 
  1524  001D                     	;# 
  1525  001E                     	;# 
  1526  001F                     	;# 
  1527  008C                     	;# 
  1528  008D                     	;# 
  1529  008E                     	;# 
  1530  0090                     	;# 
  1531  0091                     	;# 
  1532  0092                     	;# 
  1533  0093                     	;# 
  1534  0094                     	;# 
  1535  0097                     	;# 
  1536  009B                     	;# 
  1537  009B                     	;# 
  1538  009C                     	;# 
  1539  009D                     	;# 
  1540  009E                     	;# 
  1541  009F                     	;# 
  1542  010C                     	;# 
  1543  010D                     	;# 
  1544  010E                     	;# 
  1545  0111                     	;# 
  1546  0112                     	;# 
  1547  0113                     	;# 
  1548  0114                     	;# 
  1549  0115                     	;# 
  1550  0116                     	;# 
  1551  0117                     	;# 
  1552  0118                     	;# 
  1553  0119                     	;# 
  1554  018C                     	;# 
  1555  018D                     	;# 
  1556  018E                     	;# 
  1557  0197                     	;# 
  1558  0199                     	;# 
  1559  0199                     	;# 
  1560  0199                     	;# 
  1561  019A                     	;# 
  1562  019A                     	;# 
  1563  019A                     	;# 
  1564  019B                     	;# 
  1565  019B                     	;# 
  1566  019B                     	;# 
  1567  019B                     	;# 
  1568  019B                     	;# 
  1569  019C                     	;# 
  1570  019C                     	;# 
  1571  019C                     	;# 
  1572  019D                     	;# 
  1573  019D                     	;# 
  1574  019D                     	;# 
  1575  019E                     	;# 
  1576  019E                     	;# 
  1577  019E                     	;# 
  1578  019F                     	;# 
  1579  019F                     	;# 
  1580  019F                     	;# 
  1581  019F                     	;# 
  1582  019F                     	;# 
  1583  020C                     	;# 
  1584  020D                     	;# 
  1585  020E                     	;# 
  1586  0211                     	;# 
  1587  0211                     	;# 
  1588  0212                     	;# 
  1589  0212                     	;# 
  1590  0213                     	;# 
  1591  0213                     	;# 
  1592  0214                     	;# 
  1593  0214                     	;# 
  1594  0215                     	;# 
  1595  0215                     	;# 
  1596  0215                     	;# 
  1597  0215                     	;# 
  1598  0216                     	;# 
  1599  0216                     	;# 
  1600  0217                     	;# 
  1601  0217                     	;# 
  1602  0219                     	;# 
  1603  021A                     	;# 
  1604  021B                     	;# 
  1605  021C                     	;# 
  1606  021D                     	;# 
  1607  021D                     	;# 
  1608  021E                     	;# 
  1609  021F                     	;# 
  1610  028C                     	;# 
  1611  028D                     	;# 
  1612  028E                     	;# 
  1613  0291                     	;# 
  1614  0291                     	;# 
  1615  0292                     	;# 
  1616  0293                     	;# 
  1617  0294                     	;# 
  1618  0295                     	;# 
  1619  0295                     	;# 
  1620  0296                     	;# 
  1621  0297                     	;# 
  1622  0298                     	;# 
  1623  029F                     	;# 
  1624  030C                     	;# 
  1625  030D                     	;# 
  1626  030E                     	;# 
  1627  0311                     	;# 
  1628  0311                     	;# 
  1629  0312                     	;# 
  1630  0313                     	;# 
  1631  0314                     	;# 
  1632  0315                     	;# 
  1633  0315                     	;# 
  1634  0316                     	;# 
  1635  0317                     	;# 
  1636  0318                     	;# 
  1637  038C                     	;# 
  1638  038D                     	;# 
  1639  038E                     	;# 
  1640  0391                     	;# 
  1641  0392                     	;# 
  1642  0393                     	;# 
  1643  0394                     	;# 
  1644  0395                     	;# 
  1645  0396                     	;# 
  1646  0397                     	;# 
  1647  0398                     	;# 
  1648  0399                     	;# 
  1649  039A                     	;# 
  1650  039C                     	;# 
  1651  039D                     	;# 
  1652  039E                     	;# 
  1653  039F                     	;# 
  1654  0411                     	;# 
  1655  0411                     	;# 
  1656  0412                     	;# 
  1657  0413                     	;# 
  1658  0414                     	;# 
  1659  0415                     	;# 
  1660  0416                     	;# 
  1661  0417                     	;# 
  1662  0418                     	;# 
  1663  0418                     	;# 
  1664  0419                     	;# 
  1665  041A                     	;# 
  1666  041B                     	;# 
  1667  041C                     	;# 
  1668  041D                     	;# 
  1669  041E                     	;# 
  1670  041F                     	;# 
  1671  0498                     	;# 
  1672  0498                     	;# 
  1673  0499                     	;# 
  1674  049A                     	;# 
  1675  049B                     	;# 
  1676  049B                     	;# 
  1677  049C                     	;# 
  1678  049D                     	;# 
  1679  049E                     	;# 
  1680  049F                     	;# 
  1681  0617                     	;# 
  1682  0618                     	;# 
  1683  0619                     	;# 
  1684  0619                     	;# 
  1685  061A                     	;# 
  1686  061B                     	;# 
  1687  061C                     	;# 
  1688  061C                     	;# 
  1689  061F                     	;# 
  1690  0691                     	;# 
  1691  0692                     	;# 
  1692  0693                     	;# 
  1693  0694                     	;# 
  1694  0695                     	;# 
  1695  0696                     	;# 
  1696  0697                     	;# 
  1697  0698                     	;# 
  1698  0699                     	;# 
  1699  0711                     	;# 
  1700  0712                     	;# 
  1701  0713                     	;# 
  1702  0714                     	;# 
  1703  0715                     	;# 
  1704  0716                     	;# 
  1705  0717                     	;# 
  1706  0718                     	;# 
  1707  0719                     	;# 
  1708  0891                     	;# 
  1709  0891                     	;# 
  1710  0891                     	;# 
  1711  0891                     	;# 
  1712  0891                     	;# 
  1713  0891                     	;# 
  1714  0892                     	;# 
  1715  0892                     	;# 
  1716  0892                     	;# 
  1717  0893                     	;# 
  1718  0893                     	;# 
  1719  0893                     	;# 
  1720  0893                     	;# 
  1721  0893                     	;# 
  1722  0893                     	;# 
  1723  0894                     	;# 
  1724  0894                     	;# 
  1725  0894                     	;# 
  1726  0895                     	;# 
  1727  0895                     	;# 
  1728  0895                     	;# 
  1729  0896                     	;# 
  1730  0896                     	;# 
  1731  0896                     	;# 
  1732  089B                     	;# 
  1733  0911                     	;# 
  1734  0912                     	;# 
  1735  0913                     	;# 
  1736  0914                     	;# 
  1737  0915                     	;# 
  1738  0916                     	;# 
  1739  0918                     	;# 
  1740  0919                     	;# 
  1741  091A                     	;# 
  1742  091B                     	;# 
  1743  091C                     	;# 
  1744  091D                     	;# 
  1745  091E                     	;# 
  1746  091F                     	;# 
  1747  0E0F                     	;# 
  1748  0E10                     	;# 
  1749  0E11                     	;# 
  1750  0E12                     	;# 
  1751  0E13                     	;# 
  1752  0E14                     	;# 
  1753  0E15                     	;# 
  1754  0E16                     	;# 
  1755  0E17                     	;# 
  1756  0E18                     	;# 
  1757  0E19                     	;# 
  1758  0E1A                     	;# 
  1759  0E1B                     	;# 
  1760  0E1C                     	;# 
  1761  0E1D                     	;# 
  1762  0E1E                     	;# 
  1763  0E1F                     	;# 
  1764  0E20                     	;# 
  1765  0E21                     	;# 
  1766  0E22                     	;# 
  1767  0E24                     	;# 
  1768  0E25                     	;# 
  1769  0E28                     	;# 
  1770  0E29                     	;# 
  1771  0E2A                     	;# 
  1772  0E2B                     	;# 
  1773  0E2C                     	;# 
  1774  0E2D                     	;# 
  1775  0E2E                     	;# 
  1776  0E2F                     	;# 
  1777  0E90                     	;# 
  1778  0E91                     	;# 
  1779  0E92                     	;# 
  1780  0E94                     	;# 
  1781  0E95                     	;# 
  1782  0E9C                     	;# 
  1783  0E9D                     	;# 
  1784  0E9E                     	;# 
  1785  0E9F                     	;# 
  1786  0EA0                     	;# 
  1787  0EA1                     	;# 
  1788  0EA2                     	;# 
  1789  0EA3                     	;# 
  1790  0EA4                     	;# 
  1791  0EA5                     	;# 
  1792  0EA6                     	;# 
  1793  0EA7                     	;# 
  1794  0F0F                     	;# 
  1795  0F10                     	;# 
  1796  0F11                     	;# 
  1797  0F12                     	;# 
  1798  0F13                     	;# 
  1799  0F14                     	;# 
  1800  0F15                     	;# 
  1801  0F16                     	;# 
  1802  0F17                     	;# 
  1803  0F18                     	;# 
  1804  0F19                     	;# 
  1805  0F1A                     	;# 
  1806  0F1B                     	;# 
  1807  0F1C                     	;# 
  1808  0F1D                     	;# 
  1809  0F1E                     	;# 
  1810  0F1F                     	;# 
  1811  0F20                     	;# 
  1812  0F21                     	;# 
  1813  0F22                     	;# 
  1814  0F23                     	;# 
  1815  0F24                     	;# 
  1816  0F25                     	;# 
  1817  0F26                     	;# 
  1818  0F27                     	;# 
  1819  0F28                     	;# 
  1820  0F29                     	;# 
  1821  0F2A                     	;# 
  1822  0F2B                     	;# 
  1823  0F2C                     	;# 
  1824  0F2D                     	;# 
  1825  0F2E                     	;# 
  1826  0F2F                     	;# 
  1827  0F30                     	;# 
  1828  0F31                     	;# 
  1829  0F32                     	;# 
  1830  0F33                     	;# 
  1831  0F34                     	;# 
  1832  0F35                     	;# 
  1833  0F36                     	;# 
  1834  0F37                     	;# 
  1835  0FE4                     	;# 
  1836  0FE5                     	;# 
  1837  0FE6                     	;# 
  1838  0FE7                     	;# 
  1839  0FE8                     	;# 
  1840  0FE9                     	;# 
  1841  0FEA                     	;# 
  1842  0FEB                     	;# 
  1843  0FED                     	;# 
  1844  0FEE                     	;# 
  1845  0FEF                     	;# 
  1846  0000                     	;# 
  1847  0001                     	;# 
  1848  0002                     	;# 
  1849  0003                     	;# 
  1850  0004                     	;# 
  1851  0005                     	;# 
  1852  0006                     	;# 
  1853  0007                     	;# 
  1854  0008                     	;# 
  1855  0009                     	;# 
  1856  000A                     	;# 
  1857  000B                     	;# 
  1858  000C                     	;# 
  1859  000D                     	;# 
  1860  000E                     	;# 
  1861  0010                     	;# 
  1862  0011                     	;# 
  1863  0012                     	;# 
  1864  0013                     	;# 
  1865  0014                     	;# 
  1866  0015                     	;# 
  1867  0015                     	;# 
  1868  0016                     	;# 
  1869  0016                     	;# 
  1870  0017                     	;# 
  1871  0018                     	;# 
  1872  0019                     	;# 
  1873  0019                     	;# 
  1874  001A                     	;# 
  1875  001B                     	;# 
  1876  001C                     	;# 
  1877  001D                     	;# 
  1878  001E                     	;# 
  1879  001F                     	;# 
  1880  008C                     	;# 
  1881  008D                     	;# 
  1882  008E                     	;# 
  1883  0090                     	;# 
  1884  0091                     	;# 
  1885  0092                     	;# 
  1886  0093                     	;# 
  1887  0094                     	;# 
  1888  0097                     	;# 
  1889  009B                     	;# 
  1890  009B                     	;# 
  1891  009C                     	;# 
  1892  009D                     	;# 
  1893  009E                     	;# 
  1894  009F                     	;# 
  1895  010C                     	;# 
  1896  010D                     	;# 
  1897  010E                     	;# 
  1898  0111                     	;# 
  1899  0112                     	;# 
  1900  0113                     	;# 
  1901  0114                     	;# 
  1902  0115                     	;# 
  1903  0116                     	;# 
  1904  0117                     	;# 
  1905  0118                     	;# 
  1906  0119                     	;# 
  1907  018C                     	;# 
  1908  018D                     	;# 
  1909  018E                     	;# 
  1910  0197                     	;# 
  1911  0199                     	;# 
  1912  0199                     	;# 
  1913  0199                     	;# 
  1914  019A                     	;# 
  1915  019A                     	;# 
  1916  019A                     	;# 
  1917  019B                     	;# 
  1918  019B                     	;# 
  1919  019B                     	;# 
  1920  019B                     	;# 
  1921  019B                     	;# 
  1922  019C                     	;# 
  1923  019C                     	;# 
  1924  019C                     	;# 
  1925  019D                     	;# 
  1926  019D                     	;# 
  1927  019D                     	;# 
  1928  019E                     	;# 
  1929  019E                     	;# 
  1930  019E                     	;# 
  1931  019F                     	;# 
  1932  019F                     	;# 
  1933  019F                     	;# 
  1934  019F                     	;# 
  1935  019F                     	;# 
  1936  020C                     	;# 
  1937  020D                     	;# 
  1938  020E                     	;# 
  1939  0211                     	;# 
  1940  0211                     	;# 
  1941  0212                     	;# 
  1942  0212                     	;# 
  1943  0213                     	;# 
  1944  0213                     	;# 
  1945  0214                     	;# 
  1946  0214                     	;# 
  1947  0215                     	;# 
  1948  0215                     	;# 
  1949  0215                     	;# 
  1950  0215                     	;# 
  1951  0216                     	;# 
  1952  0216                     	;# 
  1953  0217                     	;# 
  1954  0217                     	;# 
  1955  0219                     	;# 
  1956  021A                     	;# 
  1957  021B                     	;# 
  1958  021C                     	;# 
  1959  021D                     	;# 
  1960  021D                     	;# 
  1961  021E                     	;# 
  1962  021F                     	;# 
  1963  028C                     	;# 
  1964  028D                     	;# 
  1965  028E                     	;# 
  1966  0291                     	;# 
  1967  0291                     	;# 
  1968  0292                     	;# 
  1969  0293                     	;# 
  1970  0294                     	;# 
  1971  0295                     	;# 
  1972  0295                     	;# 
  1973  0296                     	;# 
  1974  0297                     	;# 
  1975  0298                     	;# 
  1976  029F                     	;# 
  1977  030C                     	;# 
  1978  030D                     	;# 
  1979  030E                     	;# 
  1980  0311                     	;# 
  1981  0311                     	;# 
  1982  0312                     	;# 
  1983  0313                     	;# 
  1984  0314                     	;# 
  1985  0315                     	;# 
  1986  0315                     	;# 
  1987  0316                     	;# 
  1988  0317                     	;# 
  1989  0318                     	;# 
  1990  038C                     	;# 
  1991  038D                     	;# 
  1992  038E                     	;# 
  1993  0391                     	;# 
  1994  0392                     	;# 
  1995  0393                     	;# 
  1996  0394                     	;# 
  1997  0395                     	;# 
  1998  0396                     	;# 
  1999  0397                     	;# 
  2000  0398                     	;# 
  2001  0399                     	;# 
  2002  039A                     	;# 
  2003  039C                     	;# 
  2004  039D                     	;# 
  2005  039E                     	;# 
  2006  039F                     	;# 
  2007  0411                     	;# 
  2008  0411                     	;# 
  2009  0412                     	;# 
  2010  0413                     	;# 
  2011  0414                     	;# 
  2012  0415                     	;# 
  2013  0416                     	;# 
  2014  0417                     	;# 
  2015  0418                     	;# 
  2016  0418                     	;# 
  2017  0419                     	;# 
  2018  041A                     	;# 
  2019  041B                     	;# 
  2020  041C                     	;# 
  2021  041D                     	;# 
  2022  041E                     	;# 
  2023  041F                     	;# 
  2024  0498                     	;# 
  2025  0498                     	;# 
  2026  0499                     	;# 
  2027  049A                     	;# 
  2028  049B                     	;# 
  2029  049B                     	;# 
  2030  049C                     	;# 
  2031  049D                     	;# 
  2032  049E                     	;# 
  2033  049F                     	;# 
  2034  0617                     	;# 
  2035  0618                     	;# 
  2036  0619                     	;# 
  2037  0619                     	;# 
  2038  061A                     	;# 
  2039  061B                     	;# 
  2040  061C                     	;# 
  2041  061C                     	;# 
  2042  061F                     	;# 
  2043  0691                     	;# 
  2044  0692                     	;# 
  2045  0693                     	;# 
  2046  0694                     	;# 
  2047  0695                     	;# 
  2048  0696                     	;# 
  2049  0697                     	;# 
  2050  0698                     	;# 
  2051  0699                     	;# 
  2052  0711                     	;# 
  2053  0712                     	;# 
  2054  0713                     	;# 
  2055  0714                     	;# 
  2056  0715                     	;# 
  2057  0716                     	;# 
  2058  0717                     	;# 
  2059  0718                     	;# 
  2060  0719                     	;# 
  2061  0891                     	;# 
  2062  0891                     	;# 
  2063  0891                     	;# 
  2064  0891                     	;# 
  2065  0891                     	;# 
  2066  0891                     	;# 
  2067  0892                     	;# 
  2068  0892                     	;# 
  2069  0892                     	;# 
  2070  0893                     	;# 
  2071  0893                     	;# 
  2072  0893                     	;# 
  2073  0893                     	;# 
  2074  0893                     	;# 
  2075  0893                     	;# 
  2076  0894                     	;# 
  2077  0894                     	;# 
  2078  0894                     	;# 
  2079  0895                     	;# 
  2080  0895                     	;# 
  2081  0895                     	;# 
  2082  0896                     	;# 
  2083  0896                     	;# 
  2084  0896                     	;# 
  2085  089B                     	;# 
  2086  0911                     	;# 
  2087  0912                     	;# 
  2088  0913                     	;# 
  2089  0914                     	;# 
  2090  0915                     	;# 
  2091  0916                     	;# 
  2092  0918                     	;# 
  2093  0919                     	;# 
  2094  091A                     	;# 
  2095  091B                     	;# 
  2096  091C                     	;# 
  2097  091D                     	;# 
  2098  091E                     	;# 
  2099  091F                     	;# 
  2100  0E0F                     	;# 
  2101  0E10                     	;# 
  2102  0E11                     	;# 
  2103  0E12                     	;# 
  2104  0E13                     	;# 
  2105  0E14                     	;# 
  2106  0E15                     	;# 
  2107  0E16                     	;# 
  2108  0E17                     	;# 
  2109  0E18                     	;# 
  2110  0E19                     	;# 
  2111  0E1A                     	;# 
  2112  0E1B                     	;# 
  2113  0E1C                     	;# 
  2114  0E1D                     	;# 
  2115  0E1E                     	;# 
  2116  0E1F                     	;# 
  2117  0E20                     	;# 
  2118  0E21                     	;# 
  2119  0E22                     	;# 
  2120  0E24                     	;# 
  2121  0E25                     	;# 
  2122  0E28                     	;# 
  2123  0E29                     	;# 
  2124  0E2A                     	;# 
  2125  0E2B                     	;# 
  2126  0E2C                     	;# 
  2127  0E2D                     	;# 
  2128  0E2E                     	;# 
  2129  0E2F                     	;# 
  2130  0E90                     	;# 
  2131  0E91                     	;# 
  2132  0E92                     	;# 
  2133  0E94                     	;# 
  2134  0E95                     	;# 
  2135  0E9C                     	;# 
  2136  0E9D                     	;# 
  2137  0E9E                     	;# 
  2138  0E9F                     	;# 
  2139  0EA0                     	;# 
  2140  0EA1                     	;# 
  2141  0EA2                     	;# 
  2142  0EA3                     	;# 
  2143  0EA4                     	;# 
  2144  0EA5                     	;# 
  2145  0EA6                     	;# 
  2146  0EA7                     	;# 
  2147  0F0F                     	;# 
  2148  0F10                     	;# 
  2149  0F11                     	;# 
  2150  0F12                     	;# 
  2151  0F13                     	;# 
  2152  0F14                     	;# 
  2153  0F15                     	;# 
  2154  0F16                     	;# 
  2155  0F17                     	;# 
  2156  0F18                     	;# 
  2157  0F19                     	;# 
  2158  0F1A                     	;# 
  2159  0F1B                     	;# 
  2160  0F1C                     	;# 
  2161  0F1D                     	;# 
  2162  0F1E                     	;# 
  2163  0F1F                     	;# 
  2164  0F20                     	;# 
  2165  0F21                     	;# 
  2166  0F22                     	;# 
  2167  0F23                     	;# 
  2168  0F24                     	;# 
  2169  0F25                     	;# 
  2170  0F26                     	;# 
  2171  0F27                     	;# 
  2172  0F28                     	;# 
  2173  0F29                     	;# 
  2174  0F2A                     	;# 
  2175  0F2B                     	;# 
  2176  0F2C                     	;# 
  2177  0F2D                     	;# 
  2178  0F2E                     	;# 
  2179  0F2F                     	;# 
  2180  0F30                     	;# 
  2181  0F31                     	;# 
  2182  0F32                     	;# 
  2183  0F33                     	;# 
  2184  0F34                     	;# 
  2185  0F35                     	;# 
  2186  0F36                     	;# 
  2187  0F37                     	;# 
  2188  0FE4                     	;# 
  2189  0FE5                     	;# 
  2190  0FE6                     	;# 
  2191  0FE7                     	;# 
  2192  0FE8                     	;# 
  2193  0FE9                     	;# 
  2194  0FEA                     	;# 
  2195  0FEB                     	;# 
  2196  0FED                     	;# 
  2197  0FEE                     	;# 
  2198  0FEF                     	;# 
  2199  0000                     	;# 
  2200  0001                     	;# 
  2201  0002                     	;# 
  2202  0003                     	;# 
  2203  0004                     	;# 
  2204  0005                     	;# 
  2205  0006                     	;# 
  2206  0007                     	;# 
  2207  0008                     	;# 
  2208  0009                     	;# 
  2209  000A                     	;# 
  2210  000B                     	;# 
  2211  000C                     	;# 
  2212  000D                     	;# 
  2213  000E                     	;# 
  2214  0010                     	;# 
  2215  0011                     	;# 
  2216  0012                     	;# 
  2217  0013                     	;# 
  2218  0014                     	;# 
  2219  0015                     	;# 
  2220  0015                     	;# 
  2221  0016                     	;# 
  2222  0016                     	;# 
  2223  0017                     	;# 
  2224  0018                     	;# 
  2225  0019                     	;# 
  2226  0019                     	;# 
  2227  001A                     	;# 
  2228  001B                     	;# 
  2229  001C                     	;# 
  2230  001D                     	;# 
  2231  001E                     	;# 
  2232  001F                     	;# 
  2233  008C                     	;# 
  2234  008D                     	;# 
  2235  008E                     	;# 
  2236  0090                     	;# 
  2237  0091                     	;# 
  2238  0092                     	;# 
  2239  0093                     	;# 
  2240  0094                     	;# 
  2241  0097                     	;# 
  2242  009B                     	;# 
  2243  009B                     	;# 
  2244  009C                     	;# 
  2245  009D                     	;# 
  2246  009E                     	;# 
  2247  009F                     	;# 
  2248  010C                     	;# 
  2249  010D                     	;# 
  2250  010E                     	;# 
  2251  0111                     	;# 
  2252  0112                     	;# 
  2253  0113                     	;# 
  2254  0114                     	;# 
  2255  0115                     	;# 
  2256  0116                     	;# 
  2257  0117                     	;# 
  2258  0118                     	;# 
  2259  0119                     	;# 
  2260  018C                     	;# 
  2261  018D                     	;# 
  2262  018E                     	;# 
  2263  0197                     	;# 
  2264  0199                     	;# 
  2265  0199                     	;# 
  2266  0199                     	;# 
  2267  019A                     	;# 
  2268  019A                     	;# 
  2269  019A                     	;# 
  2270  019B                     	;# 
  2271  019B                     	;# 
  2272  019B                     	;# 
  2273  019B                     	;# 
  2274  019B                     	;# 
  2275  019C                     	;# 
  2276  019C                     	;# 
  2277  019C                     	;# 
  2278  019D                     	;# 
  2279  019D                     	;# 
  2280  019D                     	;# 
  2281  019E                     	;# 
  2282  019E                     	;# 
  2283  019E                     	;# 
  2284  019F                     	;# 
  2285  019F                     	;# 
  2286  019F                     	;# 
  2287  019F                     	;# 
  2288  019F                     	;# 
  2289  020C                     	;# 
  2290  020D                     	;# 
  2291  020E                     	;# 
  2292  0211                     	;# 
  2293  0211                     	;# 
  2294  0212                     	;# 
  2295  0212                     	;# 
  2296  0213                     	;# 
  2297  0213                     	;# 
  2298  0214                     	;# 
  2299  0214                     	;# 
  2300  0215                     	;# 
  2301  0215                     	;# 
  2302  0215                     	;# 
  2303  0215                     	;# 
  2304  0216                     	;# 
  2305  0216                     	;# 
  2306  0217                     	;# 
  2307  0217                     	;# 
  2308  0219                     	;# 
  2309  021A                     	;# 
  2310  021B                     	;# 
  2311  021C                     	;# 
  2312  021D                     	;# 
  2313  021D                     	;# 
  2314  021E                     	;# 
  2315  021F                     	;# 
  2316  028C                     	;# 
  2317  028D                     	;# 
  2318  028E                     	;# 
  2319  0291                     	;# 
  2320  0291                     	;# 
  2321  0292                     	;# 
  2322  0293                     	;# 
  2323  0294                     	;# 
  2324  0295                     	;# 
  2325  0295                     	;# 
  2326  0296                     	;# 
  2327  0297                     	;# 
  2328  0298                     	;# 
  2329  029F                     	;# 
  2330  030C                     	;# 
  2331  030D                     	;# 
  2332  030E                     	;# 
  2333  0311                     	;# 
  2334  0311                     	;# 
  2335  0312                     	;# 
  2336  0313                     	;# 
  2337  0314                     	;# 
  2338  0315                     	;# 
  2339  0315                     	;# 
  2340  0316                     	;# 
  2341  0317                     	;# 
  2342  0318                     	;# 
  2343  038C                     	;# 
  2344  038D                     	;# 
  2345  038E                     	;# 
  2346  0391                     	;# 
  2347  0392                     	;# 
  2348  0393                     	;# 
  2349  0394                     	;# 
  2350  0395                     	;# 
  2351  0396                     	;# 
  2352  0397                     	;# 
  2353  0398                     	;# 
  2354  0399                     	;# 
  2355  039A                     	;# 
  2356  039C                     	;# 
  2357  039D                     	;# 
  2358  039E                     	;# 
  2359  039F                     	;# 
  2360  0411                     	;# 
  2361  0411                     	;# 
  2362  0412                     	;# 
  2363  0413                     	;# 
  2364  0414                     	;# 
  2365  0415                     	;# 
  2366  0416                     	;# 
  2367  0417                     	;# 
  2368  0418                     	;# 
  2369  0418                     	;# 
  2370  0419                     	;# 
  2371  041A                     	;# 
  2372  041B                     	;# 
  2373  041C                     	;# 
  2374  041D                     	;# 
  2375  041E                     	;# 
  2376  041F                     	;# 
  2377  0498                     	;# 
  2378  0498                     	;# 
  2379  0499                     	;# 
  2380  049A                     	;# 
  2381  049B                     	;# 
  2382  049B                     	;# 
  2383  049C                     	;# 
  2384  049D                     	;# 
  2385  049E                     	;# 
  2386  049F                     	;# 
  2387  0617                     	;# 
  2388  0618                     	;# 
  2389  0619                     	;# 
  2390  0619                     	;# 
  2391  061A                     	;# 
  2392  061B                     	;# 
  2393  061C                     	;# 
  2394  061C                     	;# 
  2395  061F                     	;# 
  2396  0691                     	;# 
  2397  0692                     	;# 
  2398  0693                     	;# 
  2399  0694                     	;# 
  2400  0695                     	;# 
  2401  0696                     	;# 
  2402  0697                     	;# 
  2403  0698                     	;# 
  2404  0699                     	;# 
  2405  0711                     	;# 
  2406  0712                     	;# 
  2407  0713                     	;# 
  2408  0714                     	;# 
  2409  0715                     	;# 
  2410  0716                     	;# 
  2411  0717                     	;# 
  2412  0718                     	;# 
  2413  0719                     	;# 
  2414  0891                     	;# 
  2415  0891                     	;# 
  2416  0891                     	;# 
  2417  0891                     	;# 
  2418  0891                     	;# 
  2419  0891                     	;# 
  2420  0892                     	;# 
  2421  0892                     	;# 
  2422  0892                     	;# 
  2423  0893                     	;# 
  2424  0893                     	;# 
  2425  0893                     	;# 
  2426  0893                     	;# 
  2427  0893                     	;# 
  2428  0893                     	;# 
  2429  0894                     	;# 
  2430  0894                     	;# 
  2431  0894                     	;# 
  2432  0895                     	;# 
  2433  0895                     	;# 
  2434  0895                     	;# 
  2435  0896                     	;# 
  2436  0896                     	;# 
  2437  0896                     	;# 
  2438  089B                     	;# 
  2439  0911                     	;# 
  2440  0912                     	;# 
  2441  0913                     	;# 
  2442  0914                     	;# 
  2443  0915                     	;# 
  2444  0916                     	;# 
  2445  0918                     	;# 
  2446  0919                     	;# 
  2447  091A                     	;# 
  2448  091B                     	;# 
  2449  091C                     	;# 
  2450  091D                     	;# 
  2451  091E                     	;# 
  2452  091F                     	;# 
  2453  0E0F                     	;# 
  2454  0E10                     	;# 
  2455  0E11                     	;# 
  2456  0E12                     	;# 
  2457  0E13                     	;# 
  2458  0E14                     	;# 
  2459  0E15                     	;# 
  2460  0E16                     	;# 
  2461  0E17                     	;# 
  2462  0E18                     	;# 
  2463  0E19                     	;# 
  2464  0E1A                     	;# 
  2465  0E1B                     	;# 
  2466  0E1C                     	;# 
  2467  0E1D                     	;# 
  2468  0E1E                     	;# 
  2469  0E1F                     	;# 
  2470  0E20                     	;# 
  2471  0E21                     	;# 
  2472  0E22                     	;# 
  2473  0E24                     	;# 
  2474  0E25                     	;# 
  2475  0E28                     	;# 
  2476  0E29                     	;# 
  2477  0E2A                     	;# 
  2478  0E2B                     	;# 
  2479  0E2C                     	;# 
  2480  0E2D                     	;# 
  2481  0E2E                     	;# 
  2482  0E2F                     	;# 
  2483  0E90                     	;# 
  2484  0E91                     	;# 
  2485  0E92                     	;# 
  2486  0E94                     	;# 
  2487  0E95                     	;# 
  2488  0E9C                     	;# 
  2489  0E9D                     	;# 
  2490  0E9E                     	;# 
  2491  0E9F                     	;# 
  2492  0EA0                     	;# 
  2493  0EA1                     	;# 
  2494  0EA2                     	;# 
  2495  0EA3                     	;# 
  2496  0EA4                     	;# 
  2497  0EA5                     	;# 
  2498  0EA6                     	;# 
  2499  0EA7                     	;# 
  2500  0F0F                     	;# 
  2501  0F10                     	;# 
  2502  0F11                     	;# 
  2503  0F12                     	;# 
  2504  0F13                     	;# 
  2505  0F14                     	;# 
  2506  0F15                     	;# 
  2507  0F16                     	;# 
  2508  0F17                     	;# 
  2509  0F18                     	;# 
  2510  0F19                     	;# 
  2511  0F1A                     	;# 
  2512  0F1B                     	;# 
  2513  0F1C                     	;# 
  2514  0F1D                     	;# 
  2515  0F1E                     	;# 
  2516  0F1F                     	;# 
  2517  0F20                     	;# 
  2518  0F21                     	;# 
  2519  0F22                     	;# 
  2520  0F23                     	;# 
  2521  0F24                     	;# 
  2522  0F25                     	;# 
  2523  0F26                     	;# 
  2524  0F27                     	;# 
  2525  0F28                     	;# 
  2526  0F29                     	;# 
  2527  0F2A                     	;# 
  2528  0F2B                     	;# 
  2529  0F2C                     	;# 
  2530  0F2D                     	;# 
  2531  0F2E                     	;# 
  2532  0F2F                     	;# 
  2533  0F30                     	;# 
  2534  0F31                     	;# 
  2535  0F32                     	;# 
  2536  0F33                     	;# 
  2537  0F34                     	;# 
  2538  0F35                     	;# 
  2539  0F36                     	;# 
  2540  0F37                     	;# 
  2541  0FE4                     	;# 
  2542  0FE5                     	;# 
  2543  0FE6                     	;# 
  2544  0FE7                     	;# 
  2545  0FE8                     	;# 
  2546  0FE9                     	;# 
  2547  0FEA                     	;# 
  2548  0FEB                     	;# 
  2549  0FED                     	;# 
  2550  0FEE                     	;# 
  2551  0FEF                     	;# 
  2552  0000                     	;# 
  2553  0001                     	;# 
  2554  0002                     	;# 
  2555  0003                     	;# 
  2556  0004                     	;# 
  2557  0005                     	;# 
  2558  0006                     	;# 
  2559  0007                     	;# 
  2560  0008                     	;# 
  2561  0009                     	;# 
  2562  000A                     	;# 
  2563  000B                     	;# 
  2564  000C                     	;# 
  2565  000D                     	;# 
  2566  000E                     	;# 
  2567  0010                     	;# 
  2568  0011                     	;# 
  2569  0012                     	;# 
  2570  0013                     	;# 
  2571  0014                     	;# 
  2572  0015                     	;# 
  2573  0015                     	;# 
  2574  0016                     	;# 
  2575  0016                     	;# 
  2576  0017                     	;# 
  2577  0018                     	;# 
  2578  0019                     	;# 
  2579  0019                     	;# 
  2580  001A                     	;# 
  2581  001B                     	;# 
  2582  001C                     	;# 
  2583  001D                     	;# 
  2584  001E                     	;# 
  2585  001F                     	;# 
  2586  008C                     	;# 
  2587  008D                     	;# 
  2588  008E                     	;# 
  2589  0090                     	;# 
  2590  0091                     	;# 
  2591  0092                     	;# 
  2592  0093                     	;# 
  2593  0094                     	;# 
  2594  0097                     	;# 
  2595  009B                     	;# 
  2596  009B                     	;# 
  2597  009C                     	;# 
  2598  009D                     	;# 
  2599  009E                     	;# 
  2600  009F                     	;# 
  2601  010C                     	;# 
  2602  010D                     	;# 
  2603  010E                     	;# 
  2604  0111                     	;# 
  2605  0112                     	;# 
  2606  0113                     	;# 
  2607  0114                     	;# 
  2608  0115                     	;# 
  2609  0116                     	;# 
  2610  0117                     	;# 
  2611  0118                     	;# 
  2612  0119                     	;# 
  2613  018C                     	;# 
  2614  018D                     	;# 
  2615  018E                     	;# 
  2616  0197                     	;# 
  2617  0199                     	;# 
  2618  0199                     	;# 
  2619  0199                     	;# 
  2620  019A                     	;# 
  2621  019A                     	;# 
  2622  019A                     	;# 
  2623  019B                     	;# 
  2624  019B                     	;# 
  2625  019B                     	;# 
  2626  019B                     	;# 
  2627  019B                     	;# 
  2628  019C                     	;# 
  2629  019C                     	;# 
  2630  019C                     	;# 
  2631  019D                     	;# 
  2632  019D                     	;# 
  2633  019D                     	;# 
  2634  019E                     	;# 
  2635  019E                     	;# 
  2636  019E                     	;# 
  2637  019F                     	;# 
  2638  019F                     	;# 
  2639  019F                     	;# 
  2640  019F                     	;# 
  2641  019F                     	;# 
  2642  020C                     	;# 
  2643  020D                     	;# 
  2644  020E                     	;# 
  2645  0211                     	;# 
  2646  0211                     	;# 
  2647  0212                     	;# 
  2648  0212                     	;# 
  2649  0213                     	;# 
  2650  0213                     	;# 
  2651  0214                     	;# 
  2652  0214                     	;# 
  2653  0215                     	;# 
  2654  0215                     	;# 
  2655  0215                     	;# 
  2656  0215                     	;# 
  2657  0216                     	;# 
  2658  0216                     	;# 
  2659  0217                     	;# 
  2660  0217                     	;# 
  2661  0219                     	;# 
  2662  021A                     	;# 
  2663  021B                     	;# 
  2664  021C                     	;# 
  2665  021D                     	;# 
  2666  021D                     	;# 
  2667  021E                     	;# 
  2668  021F                     	;# 
  2669  028C                     	;# 
  2670  028D                     	;# 
  2671  028E                     	;# 
  2672  0291                     	;# 
  2673  0291                     	;# 
  2674  0292                     	;# 
  2675  0293                     	;# 
  2676  0294                     	;# 
  2677  0295                     	;# 
  2678  0295                     	;# 
  2679  0296                     	;# 
  2680  0297                     	;# 
  2681  0298                     	;# 
  2682  029F                     	;# 
  2683  030C                     	;# 
  2684  030D                     	;# 
  2685  030E                     	;# 
  2686  0311                     	;# 
  2687  0311                     	;# 
  2688  0312                     	;# 
  2689  0313                     	;# 
  2690  0314                     	;# 
  2691  0315                     	;# 
  2692  0315                     	;# 
  2693  0316                     	;# 
  2694  0317                     	;# 
  2695  0318                     	;# 
  2696  038C                     	;# 
  2697  038D                     	;# 
  2698  038E                     	;# 
  2699  0391                     	;# 
  2700  0392                     	;# 
  2701  0393                     	;# 
  2702  0394                     	;# 
  2703  0395                     	;# 
  2704  0396                     	;# 
  2705  0397                     	;# 
  2706  0398                     	;# 
  2707  0399                     	;# 
  2708  039A                     	;# 
  2709  039C                     	;# 
  2710  039D                     	;# 
  2711  039E                     	;# 
  2712  039F                     	;# 
  2713  0411                     	;# 
  2714  0411                     	;# 
  2715  0412                     	;# 
  2716  0413                     	;# 
  2717  0414                     	;# 
  2718  0415                     	;# 
  2719  0416                     	;# 
  2720  0417                     	;# 
  2721  0418                     	;# 
  2722  0418                     	;# 
  2723  0419                     	;# 
  2724  041A                     	;# 
  2725  041B                     	;# 
  2726  041C                     	;# 
  2727  041D                     	;# 
  2728  041E                     	;# 
  2729  041F                     	;# 
  2730  0498                     	;# 
  2731  0498                     	;# 
  2732  0499                     	;# 
  2733  049A                     	;# 
  2734  049B                     	;# 
  2735  049B                     	;# 
  2736  049C                     	;# 
  2737  049D                     	;# 
  2738  049E                     	;# 
  2739  049F                     	;# 
  2740  0617                     	;# 
  2741  0618                     	;# 
  2742  0619                     	;# 
  2743  0619                     	;# 
  2744  061A                     	;# 
  2745  061B                     	;# 
  2746  061C                     	;# 
  2747  061C                     	;# 
  2748  061F                     	;# 
  2749  0691                     	;# 
  2750  0692                     	;# 
  2751  0693                     	;# 
  2752  0694                     	;# 
  2753  0695                     	;# 
  2754  0696                     	;# 
  2755  0697                     	;# 
  2756  0698                     	;# 
  2757  0699                     	;# 
  2758  0711                     	;# 
  2759  0712                     	;# 
  2760  0713                     	;# 
  2761  0714                     	;# 
  2762  0715                     	;# 
  2763  0716                     	;# 
  2764  0717                     	;# 
  2765  0718                     	;# 
  2766  0719                     	;# 
  2767  0891                     	;# 
  2768  0891                     	;# 
  2769  0891                     	;# 
  2770  0891                     	;# 
  2771  0891                     	;# 
  2772  0891                     	;# 
  2773  0892                     	;# 
  2774  0892                     	;# 
  2775  0892                     	;# 
  2776  0893                     	;# 
  2777  0893                     	;# 
  2778  0893                     	;# 
  2779  0893                     	;# 
  2780  0893                     	;# 
  2781  0893                     	;# 
  2782  0894                     	;# 
  2783  0894                     	;# 
  2784  0894                     	;# 
  2785  0895                     	;# 
  2786  0895                     	;# 
  2787  0895                     	;# 
  2788  0896                     	;# 
  2789  0896                     	;# 
  2790  0896                     	;# 
  2791  089B                     	;# 
  2792  0911                     	;# 
  2793  0912                     	;# 
  2794  0913                     	;# 
  2795  0914                     	;# 
  2796  0915                     	;# 
  2797  0916                     	;# 
  2798  0918                     	;# 
  2799  0919                     	;# 
  2800  091A                     	;# 
  2801  091B                     	;# 
  2802  091C                     	;# 
  2803  091D                     	;# 
  2804  091E                     	;# 
  2805  091F                     	;# 
  2806  0E0F                     	;# 
  2807  0E10                     	;# 
  2808  0E11                     	;# 
  2809  0E12                     	;# 
  2810  0E13                     	;# 
  2811  0E14                     	;# 
  2812  0E15                     	;# 
  2813  0E16                     	;# 
  2814  0E17                     	;# 
  2815  0E18                     	;# 
  2816  0E19                     	;# 
  2817  0E1A                     	;# 
  2818  0E1B                     	;# 
  2819  0E1C                     	;# 
  2820  0E1D                     	;# 
  2821  0E1E                     	;# 
  2822  0E1F                     	;# 
  2823  0E20                     	;# 
  2824  0E21                     	;# 
  2825  0E22                     	;# 
  2826  0E24                     	;# 
  2827  0E25                     	;# 
  2828  0E28                     	;# 
  2829  0E29                     	;# 
  2830  0E2A                     	;# 
  2831  0E2B                     	;# 
  2832  0E2C                     	;# 
  2833  0E2D                     	;# 
  2834  0E2E                     	;# 
  2835  0E2F                     	;# 
  2836  0E90                     	;# 
  2837  0E91                     	;# 
  2838  0E92                     	;# 
  2839  0E94                     	;# 
  2840  0E95                     	;# 
  2841  0E9C                     	;# 
  2842  0E9D                     	;# 
  2843  0E9E                     	;# 
  2844  0E9F                     	;# 
  2845  0EA0                     	;# 
  2846  0EA1                     	;# 
  2847  0EA2                     	;# 
  2848  0EA3                     	;# 
  2849  0EA4                     	;# 
  2850  0EA5                     	;# 
  2851  0EA6                     	;# 
  2852  0EA7                     	;# 
  2853  0F0F                     	;# 
  2854  0F10                     	;# 
  2855  0F11                     	;# 
  2856  0F12                     	;# 
  2857  0F13                     	;# 
  2858  0F14                     	;# 
  2859  0F15                     	;# 
  2860  0F16                     	;# 
  2861  0F17                     	;# 
  2862  0F18                     	;# 
  2863  0F19                     	;# 
  2864  0F1A                     	;# 
  2865  0F1B                     	;# 
  2866  0F1C                     	;# 
  2867  0F1D                     	;# 
  2868  0F1E                     	;# 
  2869  0F1F                     	;# 
  2870  0F20                     	;# 
  2871  0F21                     	;# 
  2872  0F22                     	;# 
  2873  0F23                     	;# 
  2874  0F24                     	;# 
  2875  0F25                     	;# 
  2876  0F26                     	;# 
  2877  0F27                     	;# 
  2878  0F28                     	;# 
  2879  0F29                     	;# 
  2880  0F2A                     	;# 
  2881  0F2B                     	;# 
  2882  0F2C                     	;# 
  2883  0F2D                     	;# 
  2884  0F2E                     	;# 
  2885  0F2F                     	;# 
  2886  0F30                     	;# 
  2887  0F31                     	;# 
  2888  0F32                     	;# 
  2889  0F33                     	;# 
  2890  0F34                     	;# 
  2891  0F35                     	;# 
  2892  0F36                     	;# 
  2893  0F37                     	;# 
  2894  0FE4                     	;# 
  2895  0FE5                     	;# 
  2896  0FE6                     	;# 
  2897  0FE7                     	;# 
  2898  0FE8                     	;# 
  2899  0FE9                     	;# 
  2900  0FEA                     	;# 
  2901  0FEB                     	;# 
  2902  0FED                     	;# 
  2903  0FEE                     	;# 
  2904  0FEF                     	;# 
  2905  0000                     	;# 
  2906  0001                     	;# 
  2907  0002                     	;# 
  2908  0003                     	;# 
  2909  0004                     	;# 
  2910  0005                     	;# 
  2911  0006                     	;# 
  2912  0007                     	;# 
  2913  0008                     	;# 
  2914  0009                     	;# 
  2915  000A                     	;# 
  2916  000B                     	;# 
  2917  000C                     	;# 
  2918  000D                     	;# 
  2919  000E                     	;# 
  2920  0010                     	;# 
  2921  0011                     	;# 
  2922  0012                     	;# 
  2923  0013                     	;# 
  2924  0014                     	;# 
  2925  0015                     	;# 
  2926  0015                     	;# 
  2927  0016                     	;# 
  2928  0016                     	;# 
  2929  0017                     	;# 
  2930  0018                     	;# 
  2931  0019                     	;# 
  2932  0019                     	;# 
  2933  001A                     	;# 
  2934  001B                     	;# 
  2935  001C                     	;# 
  2936  001D                     	;# 
  2937  001E                     	;# 
  2938  001F                     	;# 
  2939  008C                     	;# 
  2940  008D                     	;# 
  2941  008E                     	;# 
  2942  0090                     	;# 
  2943  0091                     	;# 
  2944  0092                     	;# 
  2945  0093                     	;# 
  2946  0094                     	;# 
  2947  0097                     	;# 
  2948  009B                     	;# 
  2949  009B                     	;# 
  2950  009C                     	;# 
  2951  009D                     	;# 
  2952  009E                     	;# 
  2953  009F                     	;# 
  2954  010C                     	;# 
  2955  010D                     	;# 
  2956  010E                     	;# 
  2957  0111                     	;# 
  2958  0112                     	;# 
  2959  0113                     	;# 
  2960  0114                     	;# 
  2961  0115                     	;# 
  2962  0116                     	;# 
  2963  0117                     	;# 
  2964  0118                     	;# 
  2965  0119                     	;# 
  2966  018C                     	;# 
  2967  018D                     	;# 
  2968  018E                     	;# 
  2969  0197                     	;# 
  2970  0199                     	;# 
  2971  0199                     	;# 
  2972  0199                     	;# 
  2973  019A                     	;# 
  2974  019A                     	;# 
  2975  019A                     	;# 
  2976  019B                     	;# 
  2977  019B                     	;# 
  2978  019B                     	;# 
  2979  019B                     	;# 
  2980  019B                     	;# 
  2981  019C                     	;# 
  2982  019C                     	;# 
  2983  019C                     	;# 
  2984  019D                     	;# 
  2985  019D                     	;# 
  2986  019D                     	;# 
  2987  019E                     	;# 
  2988  019E                     	;# 
  2989  019E                     	;# 
  2990  019F                     	;# 
  2991  019F                     	;# 
  2992  019F                     	;# 
  2993  019F                     	;# 
  2994  019F                     	;# 
  2995  020C                     	;# 
  2996  020D                     	;# 
  2997  020E                     	;# 
  2998  0211                     	;# 
  2999  0211                     	;# 
  3000  0212                     	;# 
  3001  0212                     	;# 
  3002  0213                     	;# 
  3003  0213                     	;# 
  3004  0214                     	;# 
  3005  0214                     	;# 
  3006  0215                     	;# 
  3007  0215                     	;# 
  3008  0215                     	;# 
  3009  0215                     	;# 
  3010  0216                     	;# 
  3011  0216                     	;# 
  3012  0217                     	;# 
  3013  0217                     	;# 
  3014  0219                     	;# 
  3015  021A                     	;# 
  3016  021B                     	;# 
  3017  021C                     	;# 
  3018  021D                     	;# 
  3019  021D                     	;# 
  3020  021E                     	;# 
  3021  021F                     	;# 
  3022  028C                     	;# 
  3023  028D                     	;# 
  3024  028E                     	;# 
  3025  0291                     	;# 
  3026  0291                     	;# 
  3027  0292                     	;# 
  3028  0293                     	;# 
  3029  0294                     	;# 
  3030  0295                     	;# 
  3031  0295                     	;# 
  3032  0296                     	;# 
  3033  0297                     	;# 
  3034  0298                     	;# 
  3035  029F                     	;# 
  3036  030C                     	;# 
  3037  030D                     	;# 
  3038  030E                     	;# 
  3039  0311                     	;# 
  3040  0311                     	;# 
  3041  0312                     	;# 
  3042  0313                     	;# 
  3043  0314                     	;# 
  3044  0315                     	;# 
  3045  0315                     	;# 
  3046  0316                     	;# 
  3047  0317                     	;# 
  3048  0318                     	;# 
  3049  038C                     	;# 
  3050  038D                     	;# 
  3051  038E                     	;# 
  3052  0391                     	;# 
  3053  0392                     	;# 
  3054  0393                     	;# 
  3055  0394                     	;# 
  3056  0395                     	;# 
  3057  0396                     	;# 
  3058  0397                     	;# 
  3059  0398                     	;# 
  3060  0399                     	;# 
  3061  039A                     	;# 
  3062  039C                     	;# 
  3063  039D                     	;# 
  3064  039E                     	;# 
  3065  039F                     	;# 
  3066  0411                     	;# 
  3067  0411                     	;# 
  3068  0412                     	;# 
  3069  0413                     	;# 
  3070  0414                     	;# 
  3071  0415                     	;# 
  3072  0416                     	;# 
  3073  0417                     	;# 
  3074  0418                     	;# 
  3075  0418                     	;# 
  3076  0419                     	;# 
  3077  041A                     	;# 
  3078  041B                     	;# 
  3079  041C                     	;# 
  3080  041D                     	;# 
  3081  041E                     	;# 
  3082  041F                     	;# 
  3083  0498                     	;# 
  3084  0498                     	;# 
  3085  0499                     	;# 
  3086  049A                     	;# 
  3087  049B                     	;# 
  3088  049B                     	;# 
  3089  049C                     	;# 
  3090  049D                     	;# 
  3091  049E                     	;# 
  3092  049F                     	;# 
  3093  0617                     	;# 
  3094  0618                     	;# 
  3095  0619                     	;# 
  3096  0619                     	;# 
  3097  061A                     	;# 
  3098  061B                     	;# 
  3099  061C                     	;# 
  3100  061C                     	;# 
  3101  061F                     	;# 
  3102  0691                     	;# 
  3103  0692                     	;# 
  3104  0693                     	;# 
  3105  0694                     	;# 
  3106  0695                     	;# 
  3107  0696                     	;# 
  3108  0697                     	;# 
  3109  0698                     	;# 
  3110  0699                     	;# 
  3111  0711                     	;# 
  3112  0712                     	;# 
  3113  0713                     	;# 
  3114  0714                     	;# 
  3115  0715                     	;# 
  3116  0716                     	;# 
  3117  0717                     	;# 
  3118  0718                     	;# 
  3119  0719                     	;# 
  3120  0891                     	;# 
  3121  0891                     	;# 
  3122  0891                     	;# 
  3123  0891                     	;# 
  3124  0891                     	;# 
  3125  0891                     	;# 
  3126  0892                     	;# 
  3127  0892                     	;# 
  3128  0892                     	;# 
  3129  0893                     	;# 
  3130  0893                     	;# 
  3131  0893                     	;# 
  3132  0893                     	;# 
  3133  0893                     	;# 
  3134  0893                     	;# 
  3135  0894                     	;# 
  3136  0894                     	;# 
  3137  0894                     	;# 
  3138  0895                     	;# 
  3139  0895                     	;# 
  3140  0895                     	;# 
  3141  0896                     	;# 
  3142  0896                     	;# 
  3143  0896                     	;# 
  3144  089B                     	;# 
  3145  0911                     	;# 
  3146  0912                     	;# 
  3147  0913                     	;# 
  3148  0914                     	;# 
  3149  0915                     	;# 
  3150  0916                     	;# 
  3151  0918                     	;# 
  3152  0919                     	;# 
  3153  091A                     	;# 
  3154  091B                     	;# 
  3155  091C                     	;# 
  3156  091D                     	;# 
  3157  091E                     	;# 
  3158  091F                     	;# 
  3159  0E0F                     	;# 
  3160  0E10                     	;# 
  3161  0E11                     	;# 
  3162  0E12                     	;# 
  3163  0E13                     	;# 
  3164  0E14                     	;# 
  3165  0E15                     	;# 
  3166  0E16                     	;# 
  3167  0E17                     	;# 
  3168  0E18                     	;# 
  3169  0E19                     	;# 
  3170  0E1A                     	;# 
  3171  0E1B                     	;# 
  3172  0E1C                     	;# 
  3173  0E1D                     	;# 
  3174  0E1E                     	;# 
  3175  0E1F                     	;# 
  3176  0E20                     	;# 
  3177  0E21                     	;# 
  3178  0E22                     	;# 
  3179  0E24                     	;# 
  3180  0E25                     	;# 
  3181  0E28                     	;# 
  3182  0E29                     	;# 
  3183  0E2A                     	;# 
  3184  0E2B                     	;# 
  3185  0E2C                     	;# 
  3186  0E2D                     	;# 
  3187  0E2E                     	;# 
  3188  0E2F                     	;# 
  3189  0E90                     	;# 
  3190  0E91                     	;# 
  3191  0E92                     	;# 
  3192  0E94                     	;# 
  3193  0E95                     	;# 
  3194  0E9C                     	;# 
  3195  0E9D                     	;# 
  3196  0E9E                     	;# 
  3197  0E9F                     	;# 
  3198  0EA0                     	;# 
  3199  0EA1                     	;# 
  3200  0EA2                     	;# 
  3201  0EA3                     	;# 
  3202  0EA4                     	;# 
  3203  0EA5                     	;# 
  3204  0EA6                     	;# 
  3205  0EA7                     	;# 
  3206  0F0F                     	;# 
  3207  0F10                     	;# 
  3208  0F11                     	;# 
  3209  0F12                     	;# 
  3210  0F13                     	;# 
  3211  0F14                     	;# 
  3212  0F15                     	;# 
  3213  0F16                     	;# 
  3214  0F17                     	;# 
  3215  0F18                     	;# 
  3216  0F19                     	;# 
  3217  0F1A                     	;# 
  3218  0F1B                     	;# 
  3219  0F1C                     	;# 
  3220  0F1D                     	;# 
  3221  0F1E                     	;# 
  3222  0F1F                     	;# 
  3223  0F20                     	;# 
  3224  0F21                     	;# 
  3225  0F22                     	;# 
  3226  0F23                     	;# 
  3227  0F24                     	;# 
  3228  0F25                     	;# 
  3229  0F26                     	;# 
  3230  0F27                     	;# 
  3231  0F28                     	;# 
  3232  0F29                     	;# 
  3233  0F2A                     	;# 
  3234  0F2B                     	;# 
  3235  0F2C                     	;# 
  3236  0F2D                     	;# 
  3237  0F2E                     	;# 
  3238  0F2F                     	;# 
  3239  0F30                     	;# 
  3240  0F31                     	;# 
  3241  0F32                     	;# 
  3242  0F33                     	;# 
  3243  0F34                     	;# 
  3244  0F35                     	;# 
  3245  0F36                     	;# 
  3246  0F37                     	;# 
  3247  0FE4                     	;# 
  3248  0FE5                     	;# 
  3249  0FE6                     	;# 
  3250  0FE7                     	;# 
  3251  0FE8                     	;# 
  3252  0FE9                     	;# 
  3253  0FEA                     	;# 
  3254  0FEB                     	;# 
  3255  0FED                     	;# 
  3256  0FEE                     	;# 
  3257  0FEF                     	;# 
  3258                           
  3259 ;; Function _rd1RegCompleteHandler is unused but had its address taken
  3260  0000                     
  3261 ;; Function _rd2RegCompleteHandler is unused but had its address taken
  3262  0000                     
  3263 ;; Function _wr1RegCompleteHandler is unused but had its address taken
  3264  0000                     
  3265 ;; Function _wr2RegCompleteHandler is unused but had its address taken
  3266  0000                     
  3267 ;; Function _rdBlkRegCompleteHandler is unused but had its address taken
  3268  0000                     
  3269 ;; Function _I2C1_DO_IDLE is unused but had its address taken
  3270  0000                     
  3271 ;; Function _I2C1_DO_SEND_ADR_READ is unused but had its address taken
  3272  0000                     
  3273 ;; Function _I2C1_DO_SEND_ADR_WRITE is unused but had its address taken
  3274  0000                     
  3275 ;; Function _I2C1_DO_TX is unused but had its address taken
  3276  0000                     
  3277 ;; Function _I2C1_DO_RX is unused but had its address taken
  3278  0000                     
  3279 ;; Function _I2C1_DO_RCEN is unused but had its address taken
  3280  0000                     
  3281 ;; Function _I2C1_DO_TX_EMPTY is unused but had its address taken
  3282  0000                     
  3283 ;; Function _I2C1_DO_SEND_RESTART_READ is unused but had its address taken
  3284  0000                     
  3285 ;; Function _I2C1_DO_SEND_RESTART_WRITE is unused but had its address taken
  3286  0000                     
  3287 ;; Function _I2C1_DO_SEND_RESTART is unused but had its address taken
  3288  0000                     
  3289 ;; Function _I2C1_DO_SEND_STOP is unused but had its address taken
  3290  0000                     
  3291 ;; Function _I2C1_DO_RX_ACK is unused but had its address taken
  3292  0000                     
  3293 ;; Function _I2C1_DO_RX_NACK_STOP is unused but had its address taken
  3294  0000                     
  3295 ;; Function _I2C1_DO_RX_NACK_RESTART is unused but had its address taken
  3296  0000                     
  3297 ;; Function _I2C1_DO_RESET is unused but had its address taken
  3298  0000                     
  3299 ;; Function _I2C1_DO_ADDRESS_NACK is unused but had its address taken
  3300  0000                     
  3301 ;; Function _I2C1_CallbackReturnStop is unused but had its address taken
  3302  0000                     
  3303 ;; Function _I2C1_CallbackReturnReset is unused but had its address taken
  3304  0000                     
  3305                           	psect	idataBANK0
  3306  02A7                     __pidataBANK0:	
  3307                           
  3308                           ;initializer for main@F7270
  3309  02A7  34FF               	retlw	255
  3310  02A8  3400               	retlw	0
  3311  02A9  34FF               	retlw	255
  3312  02AA  3400               	retlw	0
  3313                           
  3314                           	psect	idataBANK1
  3315  0224                     __pidataBANK1:	
  3316                           
  3317                           ;initializer for main@F7272
  3318  0224  34FF               	retlw	255
  3319  0225  3400               	retlw	0
  3320  0226  34FF               	retlw	255
  3321  0227  3400               	retlw	0
  3322  0228  3416               	retlw	22
  3323  0229  3448               	retlw	72
  3324  022A  3445               	retlw	69
  3325  022B  344C               	retlw	76
  3326  022C  344C               	retlw	76
  3327  022D  344F               	retlw	79
  3328  022E  3420               	retlw	32
  3329  022F  3453               	retlw	83
  3330  0230  3445               	retlw	69
  3331  0231  344E               	retlw	78
  3332  0232  3453               	retlw	83
  3333  0233  344F               	retlw	79
  3334  0234  3452               	retlw	82
  3335  0235  3453               	retlw	83
  3336  0236  3417               	retlw	23
  3337  0237  34FF               	retlw	255
  3338  0238  3400               	retlw	0
  3339  0239  34FF               	retlw	255
  3340  023A  3400               	retlw	0
  3341                           
  3342                           	psect	stringtext1
  3343  01D2                     __pstringtext1:	
  3344  01D2                     _fsmStateTable:	
  3345  01D2  3400               	retlw	0
  3346  01D3  3400               	retlw	0
  3347  01D4  3400               	retlw	0
  3348  01D5  3400               	retlw	0
  3349  01D6  3400               	retlw	0
  3350  01D7  3400               	retlw	0
  3351  01D8  3400               	retlw	0
  3352  01D9  3400               	retlw	0
  3353  01DA  3400               	retlw	0
  3354  01DB  3400               	retlw	0
  3355  01DC  3400               	retlw	0
  3356  01DD  3400               	retlw	0
  3357  01DE  3400               	retlw	0
  3358  01DF  3400               	retlw	0
  3359  01E0  3400               	retlw	0
  3360  01E1  3400               	retlw	0
  3361  01E2  3400               	retlw	0
  3362  01E3  3400               	retlw	0
  3363  01E4  3400               	retlw	0
  3364  01E5  3400               	retlw	0
  3365  01E6  3400               	retlw	0
  3366  01E7  3400               	retlw	0
  3367  01E8  3400               	retlw	0
  3368  01E9  3400               	retlw	0
  3369  01EA  3400               	retlw	0
  3370  01EB  3400               	retlw	0
  3371  01EC  3400               	retlw	0
  3372  01ED  3400               	retlw	0
  3373  01EE  3400               	retlw	0
  3374  01EF  3400               	retlw	0
  3375  01F0  3400               	retlw	0
  3376  01F1  3400               	retlw	0
  3377  01F2                     __end_of_fsmStateTable:	
  3378                           
  3379                           	psect	nvBANK0
  3380  0067                     __pnvBANK0:	
  3381  0067                     _EUSART_RxDefaultInterruptHandler:	
  3382  0067                     	ds	2
  3383  0069                     _EUSART_TxDefaultInterruptHandler:	
  3384  0069                     	ds	2
  3385  006B                     _eusartTxBufferRemaining:	
  3386  006B                     	ds	1
  3387                           
  3388                           	psect	nvBANK1
  3389  00C7                     __pnvBANK1:	
  3390  00C7                     _temperature:	
  3391  00C7                     	ds	4
  3392  00CB                     _pressure:	
  3393  00CB                     	ds	4
  3394  00CF                     _EUSART_ErrorHandler:	
  3395  00CF                     	ds	2
  3396  00D1                     _EUSART_OverrunErrorHandler:	
  3397  00D1                     	ds	2
  3398  00D3                     _EUSART_FramingErrorHandler:	
  3399  00D3                     	ds	2
  3400  000E                     _PORTCbits	set	14
  3401  000B                     _INTCONbits	set	11
  3402  001F                     _T2CONbits	set	31
  3403  001F                     _T2CON	set	31
  3404  0011                     _PIR1bits	set	17
  3405  001D                     _TMR2	set	29
  3406  001E                     _PR2	set	30
  3407  008E                     _TRISC	set	142
  3408  008D                     _TRISB	set	141
  3409  008C                     _TRISA	set	140
  3410  0097                     _WDTCON	set	151
  3411  0091                     _PIE1bits	set	145
  3412  010E                     _LATCbits	set	270
  3413  010E                     _LATC	set	270
  3414  010D                     _LATB	set	269
  3415  010C                     _LATA	set	268
  3416  018C                     _ANSELA	set	396
  3417  018D                     _ANSELB	set	397
  3418  018E                     _ANSELC	set	398
  3419  0199                     _RC1REG	set	409
  3420  019D                     _RC1STAbits	set	413
  3421  019A                     _TX1REG	set	410
  3422  019E                     _TX1STAbits	set	414
  3423  019C                     _SP1BRGH	set	412
  3424  019B                     _SP1BRGL	set	411
  3425  019E                     _TX1STA	set	414
  3426  019D                     _RC1STA	set	413
  3427  019F                     _BAUD1CON	set	415
  3428  0214                     _SSP1STATbits	set	532
  3429  0216                     _SSP1CON2bits	set	534
  3430  0211                     _SSP1BUF	set	529
  3431  0215                     _SSP1CON1bits	set	533
  3432  0212                     _SSP1ADD	set	530
  3433  0216                     _SSP1CON2	set	534
  3434  0215                     _SSP1CON1	set	533
  3435  0214                     _SSP1STAT	set	532
  3436  020E                     _WPUC	set	526
  3437  020C                     _WPUA	set	524
  3438  020D                     _WPUB	set	525
  3439  028E                     _ODCONC	set	654
  3440  028D                     _ODCONB	set	653
  3441  028C                     _ODCONA	set	652
  3442  030E                     _SLRCONC	set	782
  3443  030D                     _SLRCONB	set	781
  3444  030C                     _SLRCONA	set	780
  3445  038E                     _INLVLC	set	910
  3446  038D                     _INLVLB	set	909
  3447  038C                     _INLVLA	set	908
  3448  061F                     _PWMTMRSbits	set	1567
  3449  0617                     _PWM5DCL	set	1559
  3450  0618                     _PWM5DCH	set	1560
  3451  0619                     _PWM5CON	set	1561
  3452  0916                     _PMD5	set	2326
  3453  0915                     _PMD4	set	2325
  3454  0914                     _PMD3	set	2324
  3455  0913                     _PMD2	set	2323
  3456  0912                     _PMD1	set	2322
  3457  0911                     _PMD0	set	2321
  3458  091E                     _OSCTUNE	set	2334
  3459  091F                     _OSCFRQ	set	2335
  3460  091D                     _OSCEN	set	2333
  3461  091B                     _OSCCON3	set	2331
  3462  0919                     _OSCCON1	set	2329
  3463  0E21                     _SSP1DATPPS	set	3617
  3464  0E20                     _SSP1CLKPPS	set	3616
  3465  0E24                     _RXPPS	set	3620
  3466  0EA6                     _RC6PPS	set	3750
  3467  0E9C                     _RB4PPS	set	3740
  3468  0E9D                     _RB5PPS	set	3741
  3469  0E9F                     _RB7PPS	set	3743
  3470                           
  3471                           ; #config settings
  3472  0000                     
  3473                           	psect	cinit
  3474  002E                     start_initialization:	
  3475  002E                     __initialization:	
  3476                           
  3477                           ; Initialize objects allocated to BANK0
  3478  002E  30A7               	movlw	low __pidataBANK0
  3479  002F  0084               	movwf	4
  3480  0030  3082               	movlw	(high __pidataBANK0)| (0+128)
  3481  0031  0085               	movwf	5
  3482  0032  306C               	movlw	low __pdataBANK0
  3483  0033  0086               	movwf	6
  3484  0034  3000               	movlw	high __pdataBANK0
  3485  0035  0087               	movwf	7
  3486  0036  3004               	movlw	4
  3487  0037  3182  227D  3180   	fcall	init_ram
  3488                           
  3489                           ; Initialize objects allocated to BANK1
  3490  003A  3024               	movlw	low __pidataBANK1
  3491  003B  0084               	movwf	4
  3492  003C  3082               	movlw	(high __pidataBANK1)| (0+128)
  3493  003D  0085               	movwf	5
  3494  003E  30A0               	movlw	low __pdataBANK1
  3495  003F  0086               	movwf	6
  3496  0040  3000               	movlw	high __pdataBANK1
  3497  0041  0087               	movwf	7
  3498  0042  3017               	movlw	23
  3499  0043  3182  227D  3180   	fcall	init_ram
  3500                           
  3501                           ; Clear objects allocated to COMMON
  3502  0046  3070               	movlw	low __pbssCOMMON
  3503  0047  0084               	movwf	4
  3504  0048  3000               	movlw	high __pbssCOMMON
  3505  0049  0085               	movwf	5
  3506  004A  3009               	movlw	9
  3507  004B  3182  2283  3180   	fcall	clear_ram0
  3508                           
  3509                           ; Clear objects allocated to BANK0
  3510  004E  3020               	movlw	low __pbssBANK0
  3511  004F  0084               	movwf	4
  3512  0050  3000               	movlw	high __pbssBANK0
  3513  0051  0085               	movwf	5
  3514  0052  3029               	movlw	41
  3515  0053  3182  2283  3180   	fcall	clear_ram0
  3516                           
  3517                           ; Clear objects allocated to BANK1
  3518  0056  30B7               	movlw	low __pbssBANK1
  3519  0057  0084               	movwf	4
  3520  0058  3000               	movlw	high __pbssBANK1
  3521  0059  0085               	movwf	5
  3522  005A  3010               	movlw	16
  3523  005B  3182  2283  3180   	fcall	clear_ram0
  3524  005E                     end_of_initialization:	
  3525                           ;End of C runtime variable initialization code
  3526                           
  3527  005E                     __end_of__initialization:	
  3528  005E  107E               	bcf	int$flags,0	;clear compiler interrupt flag (level 1)
  3529  005F  0020               	movlb	0
  3530  0060  3180  2862         	ljmp	_main	;jump to C main() function
  3531                           
  3532                           	psect	bssCOMMON
  3533  0070                     __pbssCOMMON:	
  3534  0070                     _raw_temperature:	
  3535  0070                     	ds	2
  3536  0072                     _value:	
  3537  0072                     	ds	1
  3538  0073                     _eusartRxLastError:	
  3539  0073                     	ds	1
  3540  0074                     _eusartRxCount:	
  3541  0074                     	ds	1
  3542  0075                     _eusartRxTail:	
  3543  0075                     	ds	1
  3544  0076                     _eusartRxHead:	
  3545  0076                     	ds	1
  3546  0077                     _eusartTxTail:	
  3547  0077                     	ds	1
  3548  0078                     _eusartTxHead:	
  3549  0078                     	ds	1
  3550                           
  3551                           	psect	bssBANK0
  3552  0020                     __pbssBANK0:	
  3553  0020                     _I2C1_Status:	
  3554  0020                     	ds	29
  3555  003D                     _eusartRxStatusBuffer:	
  3556  003D                     	ds	8
  3557  0045                     _raw_pressure:	
  3558  0045                     	ds	4
  3559                           
  3560                           	psect	dataBANK0
  3561  006C                     __pdataBANK0:	
  3562  006C                     main@F7270:	
  3563  006C                     	ds	4
  3564                           
  3565                           	psect	bssBANK1
  3566  00B7                     __pbssBANK1:	
  3567  00B7                     _eusartRxBuffer:	
  3568  00B7                     	ds	8
  3569  00BF                     _eusartTxBuffer:	
  3570  00BF                     	ds	8
  3571                           
  3572                           	psect	dataBANK1
  3573  00A0                     __pdataBANK1:	
  3574  00A0                     main@F7272:	
  3575  00A0                     	ds	23
  3576                           
  3577                           	psect	inittext
  3578  027D                     init_ram:	
  3579  027D  00FE               	movwf	btemp
  3580  027E                     initloop:	
  3581  027E  0012               	moviw fsr0++
  3582  027F  001E               	movwi fsr1++
  3583  0280  0BFE               	decfsz	btemp,f
  3584  0281  2A7E               	goto	initloop
  3585  0282  3400               	retlw	0
  3586                           
  3587                           	psect	clrtext
  3588  0283                     clear_ram0:	
  3589                           ;	Called with FSR0 containing the base address, and
  3590                           ;	WREG with the size to clear
  3591                           
  3592  0283  0064               	clrwdt	;clear the watchdog before getting into this loop
  3593  0284                     clrloop0:	
  3594  0284  0180               	clrf	0	;clear RAM location pointed to by FSR
  3595  0285  3101               	addfsr 0,1
  3596  0286  0B89               	decfsz	9,f	;Have we reached the end of clearing yet?
  3597  0287  2A84               	goto	clrloop0	;have we reached the end yet?
  3598  0288  3400               	retlw	0	;all done for this memory range, return
  3599                           
  3600                           	psect	cstackCOMMON
  3601  0079                     __pcstackCOMMON:	
  3602  0079                     ?_EUSART_Receive_ISR:	
  3603  0079                     ?_EUSART_Transmit_ISR:	
  3604                           ; 1 bytes @ 0x0
  3605                           
  3606  0079                     ??_EUSART_Transmit_ISR:	
  3607                           ; 1 bytes @ 0x0
  3608                           
  3609  0079                     ?_EUSART_DefaultFramingErrorHandler:	
  3610                           ; 1 bytes @ 0x0
  3611                           
  3612  0079                     ??_EUSART_DefaultFramingErrorHandler:	
  3613                           ; 1 bytes @ 0x0
  3614                           
  3615  0079                     ?_EUSART_DefaultOverrunErrorHandler:	
  3616                           ; 1 bytes @ 0x0
  3617                           
  3618  0079                     ??_EUSART_DefaultOverrunErrorHandler:	
  3619                           ; 1 bytes @ 0x0
  3620                           
  3621  0079                     ?_EUSART_DefaultErrorHandler:	
  3622                           ; 1 bytes @ 0x0
  3623                           
  3624  0079                     ?_EUSART_RxDataHandler:	
  3625                           ; 1 bytes @ 0x0
  3626                           
  3627  0079                     ??_EUSART_RxDataHandler:	
  3628                           ; 1 bytes @ 0x0
  3629                           
  3630  0079                     ?_PMD_Initialize:	
  3631                           ; 1 bytes @ 0x0
  3632                           
  3633  0079                     ?_I2C1_Initialize:	
  3634                           ; 1 bytes @ 0x0
  3635                           
  3636  0079                     ?_PIN_MANAGER_Initialize:	
  3637                           ; 1 bytes @ 0x0
  3638                           
  3639  0079                     ?_OSCILLATOR_Initialize:	
  3640                           ; 1 bytes @ 0x0
  3641                           
  3642  0079                     ?_WDT_Initialize:	
  3643                           ; 1 bytes @ 0x0
  3644                           
  3645  0079                     ?_PWM5_Initialize:	
  3646                           ; 1 bytes @ 0x0
  3647                           
  3648  0079                     ?_EUSART_Initialize:	
  3649                           ; 1 bytes @ 0x0
  3650                           
  3651  0079                     ?_TMR2_Initialize:	
  3652                           ; 1 bytes @ 0x0
  3653                           
  3654  0079                     ?_INTERRUPT_InterruptManager:	
  3655                           ; 1 bytes @ 0x0
  3656                           
  3657  0079                     ?_SYSTEM_Initialize:	
  3658                           ; 1 bytes @ 0x0
  3659                           
  3660  0079                     ?_setHigh:	
  3661                           ; 1 bytes @ 0x0
  3662                           
  3663  0079                     ?_setLow:	
  3664                           ; 1 bytes @ 0x0
  3665                           
  3666  0079                     ?_setZero:	
  3667                           ; 1 bytes @ 0x0
  3668                           
  3669  0079                     ?_sendPWM:	
  3670                           ; 1 bytes @ 0x0
  3671                           
  3672  0079                     ?_main:	
  3673                           ; 1 bytes @ 0x0
  3674                           
  3675                           
  3676                           ; 1 bytes @ 0x0
  3677  0079                     	ds	1
  3678  007A                     ?_EUSART_SetRxInterruptHandler:	
  3679  007A                     ??_EUSART_Receive_ISR:	
  3680                           ; 1 bytes @ 0x1
  3681                           
  3682  007A                     ?_EUSART_SetTxInterruptHandler:	
  3683                           ; 1 bytes @ 0x1
  3684                           
  3685  007A                     ?_EUSART_SetFramingErrorHandler:	
  3686                           ; 1 bytes @ 0x1
  3687                           
  3688  007A                     ?_EUSART_SetOverrunErrorHandler:	
  3689                           ; 1 bytes @ 0x1
  3690                           
  3691  007A                     ?_EUSART_SetErrorHandler:	
  3692                           ; 1 bytes @ 0x1
  3693                           
  3694  007A                     ??_EUSART_DefaultErrorHandler:	
  3695                           ; 1 bytes @ 0x1
  3696                           
  3697  007A                     ??_PMD_Initialize:	
  3698                           ; 1 bytes @ 0x1
  3699                           
  3700  007A                     ??_I2C1_Initialize:	
  3701                           ; 1 bytes @ 0x1
  3702                           
  3703  007A                     ??_PIN_MANAGER_Initialize:	
  3704                           ; 1 bytes @ 0x1
  3705                           
  3706  007A                     ??_OSCILLATOR_Initialize:	
  3707                           ; 1 bytes @ 0x1
  3708                           
  3709  007A                     ??_WDT_Initialize:	
  3710                           ; 1 bytes @ 0x1
  3711                           
  3712  007A                     ??_PWM5_Initialize:	
  3713                           ; 1 bytes @ 0x1
  3714                           
  3715  007A                     ??_TMR2_Initialize:	
  3716                           ; 1 bytes @ 0x1
  3717                           
  3718  007A                     ??_INTERRUPT_InterruptManager:	
  3719                           ; 1 bytes @ 0x1
  3720                           
  3721  007A                     ??_setHigh:	
  3722                           ; 1 bytes @ 0x1
  3723                           
  3724  007A                     ??_setLow:	
  3725                           ; 1 bytes @ 0x1
  3726                           
  3727  007A                     ??_setZero:	
  3728                           ; 1 bytes @ 0x1
  3729                           
  3730  007A                     ??_sendPWM:	
  3731                           ; 1 bytes @ 0x1
  3732                           
  3733  007A                     EUSART_SetFramingErrorHandler@interruptHandler:	
  3734                           ; 1 bytes @ 0x1
  3735                           
  3736  007A                     EUSART_SetOverrunErrorHandler@interruptHandler:	
  3737                           ; 2 bytes @ 0x1
  3738                           
  3739  007A                     EUSART_SetErrorHandler@interruptHandler:	
  3740                           ; 2 bytes @ 0x1
  3741                           
  3742  007A                     EUSART_SetTxInterruptHandler@interruptHandler:	
  3743                           ; 2 bytes @ 0x1
  3744                           
  3745  007A                     EUSART_SetRxInterruptHandler@interruptHandler:	
  3746                           ; 2 bytes @ 0x1
  3747                           
  3748                           
  3749                           ; 2 bytes @ 0x1
  3750  007A                     	ds	1
  3751  007B                     sendPWM@j:	
  3752                           
  3753                           ; 1 bytes @ 0x2
  3754  007B                     	ds	1
  3755  007C                     ??_EUSART_SetRxInterruptHandler:	
  3756  007C                     ??_EUSART_SetTxInterruptHandler:	
  3757                           ; 1 bytes @ 0x3
  3758                           
  3759  007C                     ??_EUSART_SetFramingErrorHandler:	
  3760                           ; 1 bytes @ 0x3
  3761                           
  3762  007C                     ??_EUSART_SetOverrunErrorHandler:	
  3763                           ; 1 bytes @ 0x3
  3764                           
  3765  007C                     ??_EUSART_SetErrorHandler:	
  3766                           ; 1 bytes @ 0x3
  3767                           
  3768  007C                     ??_EUSART_Initialize:	
  3769                           ; 1 bytes @ 0x3
  3770                           
  3771  007C                     sendPWM@data:	
  3772                           ; 1 bytes @ 0x3
  3773                           
  3774                           
  3775                           ; 1 bytes @ 0x3
  3776  007C                     	ds	1
  3777  007D                     ??_SYSTEM_Initialize:	
  3778                           
  3779                           	psect	cstackBANK0
  3780  0049                     __pcstackBANK0:	
  3781                           ; 1 bytes @ 0x4
  3782                           
  3783  0049                     ??_main:	
  3784                           
  3785                           ; 1 bytes @ 0x0
  3786  0049                     	ds	1
  3787  004A                     main@dummy_data:	
  3788                           
  3789                           ; 23 bytes @ 0x1
  3790  004A                     	ds	23
  3791  0061                     main@hdr_trl:	
  3792                           
  3793                           ; 4 bytes @ 0x18
  3794  0061                     	ds	4
  3795  0065                     main@n:	
  3796                           
  3797                           ; 1 bytes @ 0x1C
  3798  0065                     	ds	1
  3799  0066                     main@i:	
  3800                           
  3801                           ; 1 bytes @ 0x1D
  3802  0066                     	ds	1
  3803                           
  3804                           	psect	maintext
  3805  0062                     __pmaintext:	
  3806 ;;
  3807 ;;Main: autosize = 0, tempsize = 1, incstack = 0, save=0
  3808 ;;
  3809 ;; *************** function _main *****************
  3810 ;; Defined at:
  3811 ;;		line 146 in file "main.c"
  3812 ;; Parameters:    Size  Location     Type
  3813 ;;		None
  3814 ;; Auto vars:     Size  Location     Type
  3815 ;;  dummy_data     23    1[BANK0 ] unsigned char [23]
  3816 ;;  hdr_trl         4   24[BANK0 ] unsigned char [4]
  3817 ;;  i               1   29[BANK0 ] unsigned char 
  3818 ;;  n               1   28[BANK0 ] unsigned char 
  3819 ;; Return value:  Size  Location     Type
  3820 ;;                  1    wreg      void 
  3821 ;; Registers used:
  3822 ;;		wreg, fsr0l, fsr0h, fsr1l, fsr1h, status,2, status,0, pclath, cstack
  3823 ;; Tracked objects:
  3824 ;;		On entry : B1F/0
  3825 ;;		On exit  : 0/0
  3826 ;;		Unchanged: 0/0
  3827 ;; Data sizes:     COMMON   BANK0   BANK1   BANK2   BANK3   BANK4   BANK5   BANK6   BANK7   BANK8   BANK9  BANK10  BANK1
      +1  BANK12  BANK13  BANK14  BANK15  BANK16  BANK17  BANK18  BANK19  BANK20  BANK21  BANK22  BANK23  BANK24  BANK25
  3828 ;;      Params:         0       0       0       0       0       0       0       0       0       0       0       0       
      +0       0       0       0       0       0       0       0       0       0       0       0       0       0       0
  3829 ;;      Locals:         0      29       0       0       0       0       0       0       0       0       0       0       
      +0       0       0       0       0       0       0       0       0       0       0       0       0       0       0
  3830 ;;      Temps:          0       1       0       0       0       0       0       0       0       0       0       0       
      +0       0       0       0       0       0       0       0       0       0       0       0       0       0       0
  3831 ;;      Totals:         0      30       0       0       0       0       0       0       0       0       0       0       
      +0       0       0       0       0       0       0       0       0       0       0       0       0       0       0
  3832 ;;Total ram usage:       30 bytes
  3833 ;; Hardware stack levels required when called:    7
  3834 ;; This function calls:
  3835 ;;		_SYSTEM_Initialize
  3836 ;;		_sendPWM
  3837 ;;		_setZero
  3838 ;; This function is called by:
  3839 ;;		Startup code after reset
  3840 ;; This function uses a non-reentrant model
  3841 ;;
  3842                           
  3843                           
  3844                           ;psect for function _main
  3845  0062                     _main:	
  3846  0062                     l3455:	
  3847                           ;incstack = 0
  3848                           ; Regs used in _main: [wreg-fsr1h+status,2+status,0+pclath+cstack]
  3849                           
  3850                           
  3851                           ;main.c: 148:     char hdr_trl[] = {0xFF, 0x00, 0xFF, 0x00};
  3852  0062  0020               	movlb	0	; select bank0
  3853  0063  086F               	movf	main@F7270+3,w
  3854  0064  00E4               	movwf	main@hdr_trl+3
  3855  0065  086E               	movf	main@F7270+2,w
  3856  0066  00E3               	movwf	main@hdr_trl+2
  3857  0067  086D               	movf	main@F7270+1,w
  3858  0068  00E2               	movwf	main@hdr_trl+1
  3859  0069  086C               	movf	main@F7270,w
  3860  006A  00E1               	movwf	main@hdr_trl
  3861  006B                     l3457:	
  3862                           
  3863                           ;main.c: 150:     SYSTEM_Initialize();
  3864  006B  3181  21F2  3180   	fcall	_SYSTEM_Initialize
  3865                           
  3866                           ;main.c: 151:     setZero();
  3867  006E  3182  22B7  3180   	fcall	_setZero
  3868  0071                     l3459:	
  3869                           
  3870                           ;main.c: 152:     pressure = 1013.134;
  3871  0071  3044               	movlw	68
  3872  0072  0021               	movlb	1	; select bank1
  3873  0073  00CE               	movwf	(_pressure+3)^(0+128)
  3874  0074  307D               	movlw	125
  3875  0075  00CD               	movwf	(_pressure+2)^(0+128)
  3876  0076  3048               	movlw	72
  3877  0077  00CC               	movwf	(_pressure+1)^(0+128)
  3878  0078  3093               	movlw	147
  3879  0079  00CB               	movwf	_pressure^(0+128)
  3880  007A                     l3461:	
  3881                           
  3882                           ;main.c: 153:     temperature = 24.76;
  3883  007A  3041               	movlw	65
  3884  007B  00CA               	movwf	(_temperature+3)^(0+128)
  3885  007C  30C6               	movlw	198
  3886  007D  00C9               	movwf	(_temperature+2)^(0+128)
  3887  007E  3014               	movlw	20
  3888  007F  00C8               	movwf	(_temperature+1)^(0+128)
  3889  0080  307B               	movlw	123
  3890  0081  00C7               	movwf	_temperature^(0+128)
  3891  0082                     l3463:	
  3892                           
  3893                           ;main.c: 158:     (INTCONbits.GIE = 1);
  3894  0082  178B               	bsf	11,7	;volatile
  3895  0083                     l3465:	
  3896                           
  3897                           ;main.c: 161:     (INTCONbits.PEIE = 1);
  3898  0083  170B               	bsf	11,6	;volatile
  3899  0084                     l3467:	
  3900                           
  3901                           ;main.c: 168:     char dummy_data[] = {0xFF, 0x00, 0xFF, 0x00, 0x16, 'H', 'E', 'L', 'L',
      +                           'O', ' ', 'S', 'E', 'N', 'S', 'O', 'R', 'S', 0x17, 0xFF, 0x00, 0xFF, 0x00};
  3902  0084  30A0               	movlw	low main@F7272
  3903  0085  0086               	movwf	6
  3904  0086  3000               	movlw	high main@F7272
  3905  0087  0087               	movwf	7
  3906  0088  304A               	movlw	low main@dummy_data
  3907  0089  0084               	movwf	4
  3908  008A  3000               	movlw	high main@dummy_data
  3909  008B  0085               	movwf	5
  3910  008C  3017               	movlw	23
  3911  008D  0020               	movlb	0	; select bank0
  3912  008E  00C9               	movwf	??_main
  3913  008F                     u1540:	
  3914  008F  0016               	moviw fsr1++
  3915  0090  001A               	movwi fsr0++
  3916  0091  0BC9               	decfsz	??_main,f
  3917  0092  288F               	goto	u1540
  3918  0093                     l3469:	
  3919                           
  3920                           ;main.c: 169:     uint8_t n = sizeof (dummy_data);
  3921  0093  3017               	movlw	23
  3922  0094  00C9               	movwf	??_main
  3923  0095  0849               	movf	??_main,w
  3924  0096  00E5               	movwf	main@n
  3925  0097                     l3471:	
  3926  0097                     l3473:	
  3927                           
  3928                           ;main.c: 179:         TRISC = 0xFF;
  3929  0097  30FF               	movlw	255
  3930  0098  0021               	movlb	1	; select bank1
  3931  0099  008E               	movwf	14	;volatile
  3932  009A                     l3475:	
  3933                           
  3934                           ;main.c: 180:         if (PORTCbits.RC4 == 1) {
  3935  009A  0020               	movlb	0	; select bank0
  3936  009B  1E0E               	btfss	14,4	;volatile
  3937  009C  289E               	goto	u1551
  3938  009D  289F               	goto	u1550
  3939  009E                     u1551:	
  3940  009E  28A0               	goto	l834
  3941  009F                     u1550:	
  3942  009F  2897               	goto	l3473
  3943  00A0                     l834:	
  3944                           ;main.c: 182:         else {
  3945                           
  3946                           
  3947                           ;main.c: 183:             LATCbits.LATC3 = 1;
  3948  00A0  0022               	movlb	2	; select bank2
  3949  00A1  158E               	bsf	14,3	;volatile
  3950  00A2                     l3479:	
  3951                           
  3952                           ;main.c: 184:             TRISC = 0xBF;
  3953  00A2  30BF               	movlw	191
  3954  00A3  0021               	movlb	1	; select bank1
  3955  00A4  008E               	movwf	14	;volatile
  3956  00A5                     l3481:	
  3957                           
  3958                           ;main.c: 185:             for (i = 0; i < n; i++) {
  3959  00A5  0020               	movlb	0	; select bank0
  3960  00A6  01E6               	clrf	main@i
  3961  00A7  28B2               	goto	l3487
  3962  00A8                     l3483:	
  3963                           
  3964                           ;main.c: 186:                 sendPWM(&dummy_data[i]);
  3965  00A8  0866               	movf	main@i,w
  3966  00A9  3E4A               	addlw	(low (main@dummy_data| 0))& (0+255)
  3967  00AA  3180  20BD  3180   	fcall	_sendPWM
  3968  00AD                     l3485:	
  3969                           
  3970                           ;main.c: 187:             }
  3971  00AD  3001               	movlw	1
  3972  00AE  0020               	movlb	0	; select bank0
  3973  00AF  00C9               	movwf	??_main
  3974  00B0  0849               	movf	??_main,w
  3975  00B1  07E6               	addwf	main@i,f
  3976  00B2                     l3487:	
  3977  00B2  0865               	movf	main@n,w
  3978  00B3  0266               	subwf	main@i,w
  3979  00B4  1C03               	skipc
  3980  00B5  28B7               	goto	u1561
  3981  00B6  28B8               	goto	u1560
  3982  00B7                     u1561:	
  3983  00B7  28A8               	goto	l3483
  3984  00B8                     u1560:	
  3985  00B8                     l838:	
  3986                           
  3987                           ;main.c: 196:             LATCbits.LATC3 = 0;
  3988  00B8  0022               	movlb	2	; select bank2
  3989  00B9  118E               	bcf	14,3	;volatile
  3990  00BA  2897               	goto	l3473
  3991  00BB  3180  282C         	ljmp	start
  3992  00BD                     __end_of_main:	
  3993                           
  3994                           	psect	text1
  3995  02B7                     __ptext1:	
  3996 ;; *************** function _setZero *****************
  3997 ;; Defined at:
  3998 ;;		line 86 in file "main.c"
  3999 ;; Parameters:    Size  Location     Type
  4000 ;;		None
  4001 ;; Auto vars:     Size  Location     Type
  4002 ;;		None
  4003 ;; Return value:  Size  Location     Type
  4004 ;;                  1    wreg      void 
  4005 ;; Registers used:
  4006 ;;		status,2
  4007 ;; Tracked objects:
  4008 ;;		On entry : 0/0
  4009 ;;		On exit  : 0/0
  4010 ;;		Unchanged: 0/0
  4011 ;; Data sizes:     COMMON   BANK0   BANK1   BANK2   BANK3   BANK4   BANK5   BANK6   BANK7   BANK8   BANK9  BANK10  BANK1
      +1  BANK12  BANK13  BANK14  BANK15  BANK16  BANK17  BANK18  BANK19  BANK20  BANK21  BANK22  BANK23  BANK24  BANK25
  4012 ;;      Params:         0       0       0       0       0       0       0       0       0       0       0       0       
      +0       0       0       0       0       0       0       0       0       0       0       0       0       0       0
  4013 ;;      Locals:         0       0       0       0       0       0       0       0       0       0       0       0       
      +0       0       0       0       0       0       0       0       0       0       0       0       0       0       0
  4014 ;;      Temps:          0       0       0       0       0       0       0       0       0       0       0       0       
      +0       0       0       0       0       0       0       0       0       0       0       0       0       0       0
  4015 ;;      Totals:         0       0       0       0       0       0       0       0       0       0       0       0       
      +0       0       0       0       0       0       0       0       0       0       0       0       0       0       0
  4016 ;;Total ram usage:        0 bytes
  4017 ;; Hardware stack levels used:    1
  4018 ;; Hardware stack levels required when called:    4
  4019 ;; This function calls:
  4020 ;;		Nothing
  4021 ;; This function is called by:
  4022 ;;		_main
  4023 ;; This function uses a non-reentrant model
  4024 ;;
  4025                           
  4026                           
  4027                           ;psect for function _setZero
  4028  02B7                     _setZero:	
  4029  02B7                     l3013:	
  4030                           ;incstack = 0
  4031                           ; Regs used in _setZero: [status,2]
  4032                           
  4033                           
  4034                           ;main.c: 88:     PWM5CON = 0x00;
  4035  02B7  002C               	movlb	12	; select bank12
  4036  02B8  0199               	clrf	25	;volatile
  4037  02B9                     l807:	
  4038  02B9  0008               	return
  4039  02BA                     __end_of_setZero:	
  4040                           
  4041                           	psect	text2
  4042  00BD                     __ptext2:	
  4043 ;; *************** function _sendPWM *****************
  4044 ;; Defined at:
  4045 ;;		line 91 in file "main.c"
  4046 ;; Parameters:    Size  Location     Type
  4047 ;;  data            1    wreg     PTR unsigned char 
  4048 ;;		 -> main@dummy_data(23), 
  4049 ;; Auto vars:     Size  Location     Type
  4050 ;;  data            1    3[COMMON] PTR unsigned char 
  4051 ;;		 -> main@dummy_data(23), 
  4052 ;;  j               1    2[COMMON] unsigned char 
  4053 ;; Return value:  Size  Location     Type
  4054 ;;                  1    wreg      _Bool 
  4055 ;; Registers used:
  4056 ;;		wreg, fsr1l, fsr1h, status,2, status,0, pclath, cstack
  4057 ;; Tracked objects:
  4058 ;;		On entry : 0/0
  4059 ;;		On exit  : 0/0
  4060 ;;		Unchanged: 0/0
  4061 ;; Data sizes:     COMMON   BANK0   BANK1   BANK2   BANK3   BANK4   BANK5   BANK6   BANK7   BANK8   BANK9  BANK10  BANK1
      +1  BANK12  BANK13  BANK14  BANK15  BANK16  BANK17  BANK18  BANK19  BANK20  BANK21  BANK22  BANK23  BANK24  BANK25
  4062 ;;      Params:         0       0       0       0       0       0       0       0       0       0       0       0       
      +0       0       0       0       0       0       0       0       0       0       0       0       0       0       0
  4063 ;;      Locals:         2       0       0       0       0       0       0       0       0       0       0       0       
      +0       0       0       0       0       0       0       0       0       0       0       0       0       0       0
  4064 ;;      Temps:          1       0       0       0       0       0       0       0       0       0       0       0       
      +0       0       0       0       0       0       0       0       0       0       0       0       0       0       0
  4065 ;;      Totals:         3       0       0       0       0       0       0       0       0       0       0       0       
      +0       0       0       0       0       0       0       0       0       0       0       0       0       0       0
  4066 ;;Total ram usage:        3 bytes
  4067 ;; Hardware stack levels used:    1
  4068 ;; Hardware stack levels required when called:    5
  4069 ;; This function calls:
  4070 ;;		_setHigh
  4071 ;;		_setLow
  4072 ;; This function is called by:
  4073 ;;		_main
  4074 ;;		_sendFloat
  4075 ;; This function uses a non-reentrant model
  4076 ;;
  4077                           
  4078                           
  4079                           ;psect for function _sendPWM
  4080  00BD                     _sendPWM:	
  4081                           
  4082                           ;incstack = 0
  4083                           ; Regs used in _sendPWM: [wreg+fsr1l+fsr1h+status,2+status,0+pclath+cstack]
  4084                           ;sendPWM@data stored from wreg
  4085  00BD  00FC               	movwf	sendPWM@data
  4086  00BE                     l3015:	
  4087  00BE                     l3017:	
  4088                           
  4089                           ;main.c: 94:     setLow();
  4090  00BE  3182  2247  3180   	fcall	_setLow
  4091  00C1                     l3019:	
  4092                           
  4093                           ;main.c: 95:     _delay((unsigned long)((13.3333333333)*(16000000/4000.0)));
  4094  00C1  3046               	movlw	70
  4095  00C2  00FA               	movwf	??_sendPWM
  4096  00C3  3042               	movlw	66
  4097  00C4                     u1577:	
  4098  00C4  0B89               	decfsz	9,f
  4099  00C5  28C4               	goto	u1577
  4100  00C6  0BFA               	decfsz	??_sendPWM,f
  4101  00C7  28C4               	goto	u1577
  4102  00C8  0000               	nop
  4103  00C9                     l3021:	
  4104                           
  4105                           ;main.c: 97:     for (j = 0; j < 8; j++) {
  4106  00C9  01FB               	clrf	sendPWM@j
  4107  00CA                     l3027:	
  4108                           
  4109                           ;main.c: 98:         (!!((*data >> j)&0x01)) ? setHigh() : setLow();
  4110  00CA  087C               	movf	sendPWM@data,w
  4111  00CB  0086               	movwf	6
  4112  00CC  0187               	clrf	7
  4113  00CD  0801               	movf	1,w
  4114  00CE  00FA               	movwf	??_sendPWM
  4115  00CF  0A7B               	incf	sendPWM@j,w
  4116  00D0  28D2               	goto	u844
  4117  00D1                     u845:	
  4118  00D1  36FA               	lsrf	??_sendPWM,f
  4119  00D2                     u844:	
  4120  00D2  0B89               	decfsz	9,f
  4121  00D3  28D1               	goto	u845
  4122  00D4  1C7A               	btfss	??_sendPWM,0
  4123  00D5  28D7               	goto	u851
  4124  00D6  28D8               	goto	u850
  4125  00D7                     u851:	
  4126  00D7  28DC               	goto	l3031
  4127  00D8                     u850:	
  4128  00D8                     l3029:	
  4129  00D8  3182  2251  3180   	fcall	_setHigh
  4130  00DB  28DF               	goto	l3033
  4131  00DC                     l3031:	
  4132  00DC  3182  2247  3180   	fcall	_setLow
  4133  00DF                     l3033:	
  4134                           
  4135                           ;main.c: 99:         _delay((unsigned long)((13.3333333333)*(16000000/4000.0)));
  4136  00DF  3046               	movlw	70
  4137  00E0  00FA               	movwf	??_sendPWM
  4138  00E1  3042               	movlw	66
  4139  00E2                     u1587:	
  4140  00E2  0B89               	decfsz	9,f
  4141  00E3  28E2               	goto	u1587
  4142  00E4  0BFA               	decfsz	??_sendPWM,f
  4143  00E5  28E2               	goto	u1587
  4144  00E6  0000               	nop
  4145  00E7                     l3035:	
  4146                           
  4147                           ;main.c: 100:     }
  4148  00E7  3001               	movlw	1
  4149  00E8  00FA               	movwf	??_sendPWM
  4150  00E9  087A               	movf	??_sendPWM,w
  4151  00EA  07FB               	addwf	sendPWM@j,f
  4152  00EB                     l3037:	
  4153  00EB  3008               	movlw	8
  4154  00EC  027B               	subwf	sendPWM@j,w
  4155  00ED  1C03               	skipc
  4156  00EE  28F0               	goto	u861
  4157  00EF  28F1               	goto	u860
  4158  00F0                     u861:	
  4159  00F0  28CA               	goto	l3027
  4160  00F1                     u860:	
  4161  00F1                     l3039:	
  4162                           
  4163                           ;main.c: 102:     setHigh();
  4164  00F1  3182  2251  3180   	fcall	_setHigh
  4165  00F4                     l3041:	
  4166                           
  4167                           ;main.c: 103:     _delay((unsigned long)((13.3333333333)*(16000000/4000.0)));
  4168  00F4  3046               	movlw	70
  4169  00F5  00FA               	movwf	??_sendPWM
  4170  00F6  3042               	movlw	66
  4171  00F7                     u1597:	
  4172  00F7  0B89               	decfsz	9,f
  4173  00F8  28F7               	goto	u1597
  4174  00F9  0BFA               	decfsz	??_sendPWM,f
  4175  00FA  28F7               	goto	u1597
  4176  00FB  0000               	nop
  4177  00FC                     l817:	
  4178  00FC  0008               	return
  4179  00FD                     __end_of_sendPWM:	
  4180                           
  4181                           	psect	text3
  4182  0247                     __ptext3:	
  4183 ;; *************** function _setLow *****************
  4184 ;; Defined at:
  4185 ;;		line 79 in file "main.c"
  4186 ;; Parameters:    Size  Location     Type
  4187 ;;		None
  4188 ;; Auto vars:     Size  Location     Type
  4189 ;;		None
  4190 ;; Return value:  Size  Location     Type
  4191 ;;                  1    wreg      void 
  4192 ;; Registers used:
  4193 ;;		wreg
  4194 ;; Tracked objects:
  4195 ;;		On entry : 0/0
  4196 ;;		On exit  : 0/0
  4197 ;;		Unchanged: 0/0
  4198 ;; Data sizes:     COMMON   BANK0   BANK1   BANK2   BANK3   BANK4   BANK5   BANK6   BANK7   BANK8   BANK9  BANK10  BANK1
      +1  BANK12  BANK13  BANK14  BANK15  BANK16  BANK17  BANK18  BANK19  BANK20  BANK21  BANK22  BANK23  BANK24  BANK25
  4199 ;;      Params:         0       0       0       0       0       0       0       0       0       0       0       0       
      +0       0       0       0       0       0       0       0       0       0       0       0       0       0       0
  4200 ;;      Locals:         0       0       0       0       0       0       0       0       0       0       0       0       
      +0       0       0       0       0       0       0       0       0       0       0       0       0       0       0
  4201 ;;      Temps:          0       0       0       0       0       0       0       0       0       0       0       0       
      +0       0       0       0       0       0       0       0       0       0       0       0       0       0       0
  4202 ;;      Totals:         0       0       0       0       0       0       0       0       0       0       0       0       
      +0       0       0       0       0       0       0       0       0       0       0       0       0       0       0
  4203 ;;Total ram usage:        0 bytes
  4204 ;; Hardware stack levels used:    1
  4205 ;; Hardware stack levels required when called:    4
  4206 ;; This function calls:
  4207 ;;		Nothing
  4208 ;; This function is called by:
  4209 ;;		_sendPWM
  4210 ;; This function uses a non-reentrant model
  4211 ;;
  4212                           
  4213                           
  4214                           ;psect for function _setLow
  4215  0247                     _setLow:	
  4216  0247                     l2905:	
  4217                           ;incstack = 0
  4218                           ; Regs used in _setLow: [wreg]
  4219                           
  4220                           
  4221                           ;main.c: 81:     PWM5CON = 0x80;
  4222  0247  3080               	movlw	128
  4223  0248  002C               	movlb	12	; select bank12
  4224  0249  0099               	movwf	25	;volatile
  4225                           
  4226                           ;main.c: 82:     PR2 = 0x74;
  4227  024A  3074               	movlw	116
  4228  024B  0020               	movlb	0	; select bank0
  4229  024C  009E               	movwf	30	;volatile
  4230                           
  4231                           ;main.c: 83:     PWM5DCH = 0x3A;
  4232  024D  303A               	movlw	58
  4233  024E  002C               	movlb	12	; select bank12
  4234  024F  0098               	movwf	24	;volatile
  4235  0250                     l804:	
  4236  0250  0008               	return
  4237  0251                     __end_of_setLow:	
  4238                           
  4239                           	psect	text4
  4240  0251                     __ptext4:	
  4241 ;; *************** function _setHigh *****************
  4242 ;; Defined at:
  4243 ;;		line 71 in file "main.c"
  4244 ;; Parameters:    Size  Location     Type
  4245 ;;		None
  4246 ;; Auto vars:     Size  Location     Type
  4247 ;;		None
  4248 ;; Return value:  Size  Location     Type
  4249 ;;                  1    wreg      void 
  4250 ;; Registers used:
  4251 ;;		wreg
  4252 ;; Tracked objects:
  4253 ;;		On entry : 0/0
  4254 ;;		On exit  : 0/0
  4255 ;;		Unchanged: 0/0
  4256 ;; Data sizes:     COMMON   BANK0   BANK1   BANK2   BANK3   BANK4   BANK5   BANK6   BANK7   BANK8   BANK9  BANK10  BANK1
      +1  BANK12  BANK13  BANK14  BANK15  BANK16  BANK17  BANK18  BANK19  BANK20  BANK21  BANK22  BANK23  BANK24  BANK25
  4257 ;;      Params:         0       0       0       0       0       0       0       0       0       0       0       0       
      +0       0       0       0       0       0       0       0       0       0       0       0       0       0       0
  4258 ;;      Locals:         0       0       0       0       0       0       0       0       0       0       0       0       
      +0       0       0       0       0       0       0       0       0       0       0       0       0       0       0
  4259 ;;      Temps:          0       0       0       0       0       0       0       0       0       0       0       0       
      +0       0       0       0       0       0       0       0       0       0       0       0       0       0       0
  4260 ;;      Totals:         0       0       0       0       0       0       0       0       0       0       0       0       
      +0       0       0       0       0       0       0       0       0       0       0       0       0       0       0
  4261 ;;Total ram usage:        0 bytes
  4262 ;; Hardware stack levels used:    1
  4263 ;; Hardware stack levels required when called:    4
  4264 ;; This function calls:
  4265 ;;		Nothing
  4266 ;; This function is called by:
  4267 ;;		_sendPWM
  4268 ;; This function uses a non-reentrant model
  4269 ;;
  4270                           
  4271                           
  4272                           ;psect for function _setHigh
  4273  0251                     _setHigh:	
  4274  0251                     l2903:	
  4275                           ;incstack = 0
  4276                           ; Regs used in _setHigh: [wreg]
  4277                           
  4278                           
  4279                           ;main.c: 73:     PWM5CON = 0x80;
  4280  0251  3080               	movlw	128
  4281  0252  002C               	movlb	12	; select bank12
  4282  0253  0099               	movwf	25	;volatile
  4283                           
  4284                           ;main.c: 74:     PR2 = 0x68;
  4285  0254  3068               	movlw	104
  4286  0255  0020               	movlb	0	; select bank0
  4287  0256  009E               	movwf	30	;volatile
  4288                           
  4289                           ;main.c: 75:     PWM5DCH = 0x34;
  4290  0257  3034               	movlw	52
  4291  0258  002C               	movlb	12	; select bank12
  4292  0259  0098               	movwf	24	;volatile
  4293  025A                     l801:	
  4294  025A  0008               	return
  4295  025B                     __end_of_setHigh:	
  4296                           
  4297                           	psect	text5
  4298  01F2                     __ptext5:	
  4299 ;; *************** function _SYSTEM_Initialize *****************
  4300 ;; Defined at:
  4301 ;;		line 50 in file "mcc_generated_files/mcc.c"
  4302 ;; Parameters:    Size  Location     Type
  4303 ;;		None
  4304 ;; Auto vars:     Size  Location     Type
  4305 ;;		None
  4306 ;; Return value:  Size  Location     Type
  4307 ;;                  1    wreg      void 
  4308 ;; Registers used:
  4309 ;;		wreg, status,2, status,0, pclath, cstack
  4310 ;; Tracked objects:
  4311 ;;		On entry : 0/0
  4312 ;;		On exit  : 0/0
  4313 ;;		Unchanged: 0/0
  4314 ;; Data sizes:     COMMON   BANK0   BANK1   BANK2   BANK3   BANK4   BANK5   BANK6   BANK7   BANK8   BANK9  BANK10  BANK1
      +1  BANK12  BANK13  BANK14  BANK15  BANK16  BANK17  BANK18  BANK19  BANK20  BANK21  BANK22  BANK23  BANK24  BANK25
  4315 ;;      Params:         0       0       0       0       0       0       0       0       0       0       0       0       
      +0       0       0       0       0       0       0       0       0       0       0       0       0       0       0
  4316 ;;      Locals:         0       0       0       0       0       0       0       0       0       0       0       0       
      +0       0       0       0       0       0       0       0       0       0       0       0       0       0       0
  4317 ;;      Temps:          0       0       0       0       0       0       0       0       0       0       0       0       
      +0       0       0       0       0       0       0       0       0       0       0       0       0       0       0
  4318 ;;      Totals:         0       0       0       0       0       0       0       0       0       0       0       0       
      +0       0       0       0       0       0       0       0       0       0       0       0       0       0       0
  4319 ;;Total ram usage:        0 bytes
  4320 ;; Hardware stack levels used:    1
  4321 ;; Hardware stack levels required when called:    6
  4322 ;; This function calls:
  4323 ;;		_EUSART_Initialize
  4324 ;;		_I2C1_Initialize
  4325 ;;		_OSCILLATOR_Initialize
  4326 ;;		_PIN_MANAGER_Initialize
  4327 ;;		_PMD_Initialize
  4328 ;;		_PWM5_Initialize
  4329 ;;		_TMR2_Initialize
  4330 ;;		_WDT_Initialize
  4331 ;; This function is called by:
  4332 ;;		_main
  4333 ;; This function uses a non-reentrant model
  4334 ;;
  4335                           
  4336                           
  4337                           ;psect for function _SYSTEM_Initialize
  4338  01F2                     _SYSTEM_Initialize:	
  4339  01F2                     l2997:	
  4340                           ;incstack = 0
  4341                           ; Regs used in _SYSTEM_Initialize: [wreg+status,2+status,0+pclath+cstack]
  4342                           
  4343                           
  4344                           ;mcc_generated_files/mcc.c: 53:     PMD_Initialize();
  4345  01F2  3182  2275  3181   	fcall	_PMD_Initialize
  4346  01F5                     l2999:	
  4347                           
  4348                           ;mcc_generated_files/mcc.c: 54:     I2C1_Initialize();
  4349  01F5  3182  2264  3181   	fcall	_I2C1_Initialize
  4350  01F8                     l3001:	
  4351                           
  4352                           ;mcc_generated_files/mcc.c: 55:     PIN_MANAGER_Initialize();
  4353  01F8  3181  213D  3181   	fcall	_PIN_MANAGER_Initialize
  4354  01FB                     l3003:	
  4355                           
  4356                           ;mcc_generated_files/mcc.c: 56:     OSCILLATOR_Initialize();
  4357  01FB  3182  225B  3181   	fcall	_OSCILLATOR_Initialize
  4358  01FE                     l3005:	
  4359                           
  4360                           ;mcc_generated_files/mcc.c: 57:     WDT_Initialize();
  4361  01FE  3182  22AB  3181   	fcall	_WDT_Initialize
  4362  0201                     l3007:	
  4363                           
  4364                           ;mcc_generated_files/mcc.c: 58:     PWM5_Initialize();
  4365  0201  3182  223B  3181   	fcall	_PWM5_Initialize
  4366  0204                     l3009:	
  4367                           
  4368                           ;mcc_generated_files/mcc.c: 59:     TMR2_Initialize();
  4369  0204  3182  226D  3181   	fcall	_TMR2_Initialize
  4370  0207                     l3011:	
  4371                           
  4372                           ;mcc_generated_files/mcc.c: 60:     EUSART_Initialize();
  4373  0207  3180  20FD  3181   	fcall	_EUSART_Initialize
  4374  020A                     l362:	
  4375  020A  0008               	return
  4376  020B                     __end_of_SYSTEM_Initialize:	
  4377                           
  4378                           	psect	text6
  4379  02AB                     __ptext6:	
  4380 ;; *************** function _WDT_Initialize *****************
  4381 ;; Defined at:
  4382 ;;		line 77 in file "mcc_generated_files/mcc.c"
  4383 ;; Parameters:    Size  Location     Type
  4384 ;;		None
  4385 ;; Auto vars:     Size  Location     Type
  4386 ;;		None
  4387 ;; Return value:  Size  Location     Type
  4388 ;;                  1    wreg      void 
  4389 ;; Registers used:
  4390 ;;		wreg
  4391 ;; Tracked objects:
  4392 ;;		On entry : 0/0
  4393 ;;		On exit  : 0/0
  4394 ;;		Unchanged: 0/0
  4395 ;; Data sizes:     COMMON   BANK0   BANK1   BANK2   BANK3   BANK4   BANK5   BANK6   BANK7   BANK8   BANK9  BANK10  BANK1
      +1  BANK12  BANK13  BANK14  BANK15  BANK16  BANK17  BANK18  BANK19  BANK20  BANK21  BANK22  BANK23  BANK24  BANK25
  4396 ;;      Params:         0       0       0       0       0       0       0       0       0       0       0       0       
      +0       0       0       0       0       0       0       0       0       0       0       0       0       0       0
  4397 ;;      Locals:         0       0       0       0       0       0       0       0       0       0       0       0       
      +0       0       0       0       0       0       0       0       0       0       0       0       0       0       0
  4398 ;;      Temps:          0       0       0       0       0       0       0       0       0       0       0       0       
      +0       0       0       0       0       0       0       0       0       0       0       0       0       0       0
  4399 ;;      Totals:         0       0       0       0       0       0       0       0       0       0       0       0       
      +0       0       0       0       0       0       0       0       0       0       0       0       0       0       0
  4400 ;;Total ram usage:        0 bytes
  4401 ;; Hardware stack levels used:    1
  4402 ;; Hardware stack levels required when called:    4
  4403 ;; This function calls:
  4404 ;;		Nothing
  4405 ;; This function is called by:
  4406 ;;		_SYSTEM_Initialize
  4407 ;; This function uses a non-reentrant model
  4408 ;;
  4409                           
  4410                           
  4411                           ;psect for function _WDT_Initialize
  4412  02AB                     _WDT_Initialize:	
  4413  02AB                     l2901:	
  4414                           ;incstack = 0
  4415                           ; Regs used in _WDT_Initialize: [wreg]
  4416                           
  4417                           
  4418                           ;mcc_generated_files/mcc.c: 80:     WDTCON = 0x16;
  4419  02AB  3016               	movlw	22
  4420  02AC  0021               	movlb	1	; select bank1
  4421  02AD  0097               	movwf	23	;volatile
  4422  02AE                     l368:	
  4423  02AE  0008               	return
  4424  02AF                     __end_of_WDT_Initialize:	
  4425                           
  4426                           	psect	text7
  4427  026D                     __ptext7:	
  4428 ;; *************** function _TMR2_Initialize *****************
  4429 ;; Defined at:
  4430 ;;		line 62 in file "mcc_generated_files/tmr2.c"
  4431 ;; Parameters:    Size  Location     Type
  4432 ;;		None
  4433 ;; Auto vars:     Size  Location     Type
  4434 ;;		None
  4435 ;; Return value:  Size  Location     Type
  4436 ;;                  1    wreg      void 
  4437 ;; Registers used:
  4438 ;;		wreg, status,2
  4439 ;; Tracked objects:
  4440 ;;		On entry : 0/0
  4441 ;;		On exit  : 0/0
  4442 ;;		Unchanged: 0/0
  4443 ;; Data sizes:     COMMON   BANK0   BANK1   BANK2   BANK3   BANK4   BANK5   BANK6   BANK7   BANK8   BANK9  BANK10  BANK1
      +1  BANK12  BANK13  BANK14  BANK15  BANK16  BANK17  BANK18  BANK19  BANK20  BANK21  BANK22  BANK23  BANK24  BANK25
  4444 ;;      Params:         0       0       0       0       0       0       0       0       0       0       0       0       
      +0       0       0       0       0       0       0       0       0       0       0       0       0       0       0
  4445 ;;      Locals:         0       0       0       0       0       0       0       0       0       0       0       0       
      +0       0       0       0       0       0       0       0       0       0       0       0       0       0       0
  4446 ;;      Temps:          0       0       0       0       0       0       0       0       0       0       0       0       
      +0       0       0       0       0       0       0       0       0       0       0       0       0       0       0
  4447 ;;      Totals:         0       0       0       0       0       0       0       0       0       0       0       0       
      +0       0       0       0       0       0       0       0       0       0       0       0       0       0       0
  4448 ;;Total ram usage:        0 bytes
  4449 ;; Hardware stack levels used:    1
  4450 ;; Hardware stack levels required when called:    4
  4451 ;; This function calls:
  4452 ;;		Nothing
  4453 ;; This function is called by:
  4454 ;;		_SYSTEM_Initialize
  4455 ;; This function uses a non-reentrant model
  4456 ;;
  4457                           
  4458                           
  4459                           ;psect for function _TMR2_Initialize
  4460  026D                     _TMR2_Initialize:	
  4461  026D                     l2835:	
  4462                           ;incstack = 0
  4463                           ; Regs used in _TMR2_Initialize: [wreg+status,2]
  4464                           
  4465                           
  4466                           ;mcc_generated_files/tmr2.c: 67:     PR2 = 0x68;
  4467  026D  3068               	movlw	104
  4468  026E  0020               	movlb	0	; select bank0
  4469  026F  009E               	movwf	30	;volatile
  4470  0270                     l2837:	
  4471                           
  4472                           ;mcc_generated_files/tmr2.c: 70:     TMR2 = 0x00;
  4473  0270  019D               	clrf	29	;volatile
  4474  0271                     l2839:	
  4475                           
  4476                           ;mcc_generated_files/tmr2.c: 73:     PIR1bits.TMR2IF = 0;
  4477  0271  1091               	bcf	17,1	;volatile
  4478  0272                     l2841:	
  4479                           
  4480                           ;mcc_generated_files/tmr2.c: 76:     T2CON = 0x05;
  4481  0272  3005               	movlw	5
  4482  0273  009F               	movwf	31	;volatile
  4483  0274                     l279:	
  4484  0274  0008               	return
  4485  0275                     __end_of_TMR2_Initialize:	
  4486                           
  4487                           	psect	text8
  4488  023B                     __ptext8:	
  4489 ;; *************** function _PWM5_Initialize *****************
  4490 ;; Defined at:
  4491 ;;		line 58 in file "mcc_generated_files/pwm5.c"
  4492 ;; Parameters:    Size  Location     Type
  4493 ;;		None
  4494 ;; Auto vars:     Size  Location     Type
  4495 ;;		None
  4496 ;; Return value:  Size  Location     Type
  4497 ;;                  1    wreg      void 
  4498 ;; Registers used:
  4499 ;;		wreg, status,2, status,0
  4500 ;; Tracked objects:
  4501 ;;		On entry : 0/0
  4502 ;;		On exit  : 0/0
  4503 ;;		Unchanged: 0/0
  4504 ;; Data sizes:     COMMON   BANK0   BANK1   BANK2   BANK3   BANK4   BANK5   BANK6   BANK7   BANK8   BANK9  BANK10  BANK1
      +1  BANK12  BANK13  BANK14  BANK15  BANK16  BANK17  BANK18  BANK19  BANK20  BANK21  BANK22  BANK23  BANK24  BANK25
  4505 ;;      Params:         0       0       0       0       0       0       0       0       0       0       0       0       
      +0       0       0       0       0       0       0       0       0       0       0       0       0       0       0
  4506 ;;      Locals:         0       0       0       0       0       0       0       0       0       0       0       0       
      +0       0       0       0       0       0       0       0       0       0       0       0       0       0       0
  4507 ;;      Temps:          0       0       0       0       0       0       0       0       0       0       0       0       
      +0       0       0       0       0       0       0       0       0       0       0       0       0       0       0
  4508 ;;      Totals:         0       0       0       0       0       0       0       0       0       0       0       0       
      +0       0       0       0       0       0       0       0       0       0       0       0       0       0       0
  4509 ;;Total ram usage:        0 bytes
  4510 ;; Hardware stack levels used:    1
  4511 ;; Hardware stack levels required when called:    4
  4512 ;; This function calls:
  4513 ;;		Nothing
  4514 ;; This function is called by:
  4515 ;;		_SYSTEM_Initialize
  4516 ;; This function uses a non-reentrant model
  4517 ;;
  4518                           
  4519                           
  4520                           ;psect for function _PWM5_Initialize
  4521  023B                     _PWM5_Initialize:	
  4522  023B                     l2795:	
  4523                           ;incstack = 0
  4524                           ; Regs used in _PWM5_Initialize: [wreg+status,2+status,0]
  4525                           
  4526                           
  4527                           ;mcc_generated_files/pwm5.c: 62:     PWM5CON = 0x80;
  4528  023B  3080               	movlw	128
  4529  023C  002C               	movlb	12	; select bank12
  4530  023D  0099               	movwf	25	;volatile
  4531                           
  4532                           ;mcc_generated_files/pwm5.c: 65:     PWM5DCH = 0x34;
  4533  023E  3034               	movlw	52
  4534  023F  0098               	movwf	24	;volatile
  4535                           
  4536                           ;mcc_generated_files/pwm5.c: 68:     PWM5DCL = 0x40;
  4537  0240  3040               	movlw	64
  4538  0241  0097               	movwf	23	;volatile
  4539  0242                     l2797:	
  4540                           
  4541                           ;mcc_generated_files/pwm5.c: 71:     PWMTMRSbits.P5TSEL = 1;
  4542  0242  081F               	movf	31,w	;volatile
  4543  0243  39FC               	andlw	-4
  4544  0244  3801               	iorlw	1
  4545  0245  009F               	movwf	31	;volatile
  4546  0246                     l113:	
  4547  0246  0008               	return
  4548  0247                     __end_of_PWM5_Initialize:	
  4549                           
  4550                           	psect	text9
  4551  0275                     __ptext9:	
  4552 ;; *************** function _PMD_Initialize *****************
  4553 ;; Defined at:
  4554 ;;		line 83 in file "mcc_generated_files/mcc.c"
  4555 ;; Parameters:    Size  Location     Type
  4556 ;;		None
  4557 ;; Auto vars:     Size  Location     Type
  4558 ;;		None
  4559 ;; Return value:  Size  Location     Type
  4560 ;;                  1    wreg      void 
  4561 ;; Registers used:
  4562 ;;		status,2
  4563 ;; Tracked objects:
  4564 ;;		On entry : 0/0
  4565 ;;		On exit  : 0/0
  4566 ;;		Unchanged: 0/0
  4567 ;; Data sizes:     COMMON   BANK0   BANK1   BANK2   BANK3   BANK4   BANK5   BANK6   BANK7   BANK8   BANK9  BANK10  BANK1
      +1  BANK12  BANK13  BANK14  BANK15  BANK16  BANK17  BANK18  BANK19  BANK20  BANK21  BANK22  BANK23  BANK24  BANK25
  4568 ;;      Params:         0       0       0       0       0       0       0       0       0       0       0       0       
      +0       0       0       0       0       0       0       0       0       0       0       0       0       0       0
  4569 ;;      Locals:         0       0       0       0       0       0       0       0       0       0       0       0       
      +0       0       0       0       0       0       0       0       0       0       0       0       0       0       0
  4570 ;;      Temps:          0       0       0       0       0       0       0       0       0       0       0       0       
      +0       0       0       0       0       0       0       0       0       0       0       0       0       0       0
  4571 ;;      Totals:         0       0       0       0       0       0       0       0       0       0       0       0       
      +0       0       0       0       0       0       0       0       0       0       0       0       0       0       0
  4572 ;;Total ram usage:        0 bytes
  4573 ;; Hardware stack levels used:    1
  4574 ;; Hardware stack levels required when called:    4
  4575 ;; This function calls:
  4576 ;;		Nothing
  4577 ;; This function is called by:
  4578 ;;		_SYSTEM_Initialize
  4579 ;; This function uses a non-reentrant model
  4580 ;;
  4581                           
  4582                           
  4583                           ;psect for function _PMD_Initialize
  4584  0275                     _PMD_Initialize:	
  4585  0275                     l2843:	
  4586                           ;incstack = 0
  4587                           ; Regs used in _PMD_Initialize: [status,2]
  4588                           
  4589                           
  4590                           ;mcc_generated_files/mcc.c: 86:     PMD0 = 0x00;
  4591  0275  0032               	movlb	18	; select bank18
  4592  0276  0191               	clrf	17	;volatile
  4593                           
  4594                           ;mcc_generated_files/mcc.c: 88:     PMD1 = 0x00;
  4595  0277  0192               	clrf	18	;volatile
  4596                           
  4597                           ;mcc_generated_files/mcc.c: 90:     PMD2 = 0x00;
  4598  0278  0193               	clrf	19	;volatile
  4599                           
  4600                           ;mcc_generated_files/mcc.c: 92:     PMD3 = 0x00;
  4601  0279  0194               	clrf	20	;volatile
  4602                           
  4603                           ;mcc_generated_files/mcc.c: 94:     PMD4 = 0x00;
  4604  027A  0195               	clrf	21	;volatile
  4605                           
  4606                           ;mcc_generated_files/mcc.c: 96:     PMD5 = 0x00;
  4607  027B  0196               	clrf	22	;volatile
  4608  027C                     l371:	
  4609  027C  0008               	return
  4610  027D                     __end_of_PMD_Initialize:	
  4611                           
  4612                           	psect	text10
  4613  013D                     __ptext10:	
  4614 ;; *************** function _PIN_MANAGER_Initialize *****************
  4615 ;; Defined at:
  4616 ;;		line 55 in file "mcc_generated_files/pin_manager.c"
  4617 ;; Parameters:    Size  Location     Type
  4618 ;;		None
  4619 ;; Auto vars:     Size  Location     Type
  4620 ;;		None
  4621 ;; Return value:  Size  Location     Type
  4622 ;;                  1    wreg      void 
  4623 ;; Registers used:
  4624 ;;		wreg, status,2
  4625 ;; Tracked objects:
  4626 ;;		On entry : 0/0
  4627 ;;		On exit  : 0/0
  4628 ;;		Unchanged: 0/0
  4629 ;; Data sizes:     COMMON   BANK0   BANK1   BANK2   BANK3   BANK4   BANK5   BANK6   BANK7   BANK8   BANK9  BANK10  BANK1
      +1  BANK12  BANK13  BANK14  BANK15  BANK16  BANK17  BANK18  BANK19  BANK20  BANK21  BANK22  BANK23  BANK24  BANK25
  4630 ;;      Params:         0       0       0       0       0       0       0       0       0       0       0       0       
      +0       0       0       0       0       0       0       0       0       0       0       0       0       0       0
  4631 ;;      Locals:         0       0       0       0       0       0       0       0       0       0       0       0       
      +0       0       0       0       0       0       0       0       0       0       0       0       0       0       0
  4632 ;;      Temps:          0       0       0       0       0       0       0       0       0       0       0       0       
      +0       0       0       0       0       0       0       0       0       0       0       0       0       0       0
  4633 ;;      Totals:         0       0       0       0       0       0       0       0       0       0       0       0       
      +0       0       0       0       0       0       0       0       0       0       0       0       0       0       0
  4634 ;;Total ram usage:        0 bytes
  4635 ;; Hardware stack levels used:    1
  4636 ;; Hardware stack levels required when called:    4
  4637 ;; This function calls:
  4638 ;;		Nothing
  4639 ;; This function is called by:
  4640 ;;		_SYSTEM_Initialize
  4641 ;; This function uses a non-reentrant model
  4642 ;;
  4643                           
  4644                           
  4645                           ;psect for function _PIN_MANAGER_Initialize
  4646  013D                     _PIN_MANAGER_Initialize:	
  4647  013D                     l2853:	
  4648                           ;incstack = 0
  4649                           ; Regs used in _PIN_MANAGER_Initialize: [wreg+status,2]
  4650                           
  4651                           
  4652                           ;mcc_generated_files/pin_manager.c: 60:     LATA = 0x00;
  4653  013D  0022               	movlb	2	; select bank2
  4654  013E  018C               	clrf	12	;volatile
  4655                           
  4656                           ;mcc_generated_files/pin_manager.c: 61:     LATB = 0x00;
  4657  013F  018D               	clrf	13	;volatile
  4658                           
  4659                           ;mcc_generated_files/pin_manager.c: 62:     LATC = 0x00;
  4660  0140  018E               	clrf	14	;volatile
  4661  0141                     l2855:	
  4662                           
  4663                           ;mcc_generated_files/pin_manager.c: 67:     TRISA = 0x37;
  4664  0141  3037               	movlw	55
  4665  0142  0021               	movlb	1	; select bank1
  4666  0143  008C               	movwf	12	;volatile
  4667  0144                     l2857:	
  4668                           
  4669                           ;mcc_generated_files/pin_manager.c: 68:     TRISB = 0x70;
  4670  0144  3070               	movlw	112
  4671  0145  008D               	movwf	13	;volatile
  4672  0146                     l2859:	
  4673                           
  4674                           ;mcc_generated_files/pin_manager.c: 69:     TRISC = 0xB7;
  4675  0146  30B7               	movlw	183
  4676  0147  008E               	movwf	14	;volatile
  4677  0148                     l2861:	
  4678                           
  4679                           ;mcc_generated_files/pin_manager.c: 74:     ANSELC = 0xE7;
  4680  0148  30E7               	movlw	231
  4681  0149  0023               	movlb	3	; select bank3
  4682  014A  008E               	movwf	14	;volatile
  4683  014B                     l2863:	
  4684                           
  4685                           ;mcc_generated_files/pin_manager.c: 75:     ANSELB = 0x80;
  4686  014B  3080               	movlw	128
  4687  014C  008D               	movwf	13	;volatile
  4688  014D                     l2865:	
  4689                           
  4690                           ;mcc_generated_files/pin_manager.c: 76:     ANSELA = 0x37;
  4691  014D  3037               	movlw	55
  4692  014E  008C               	movwf	12	;volatile
  4693                           
  4694                           ;mcc_generated_files/pin_manager.c: 81:     WPUB = 0x00;
  4695  014F  0024               	movlb	4	; select bank4
  4696  0150  018D               	clrf	13	;volatile
  4697                           
  4698                           ;mcc_generated_files/pin_manager.c: 82:     WPUA = 0x00;
  4699  0151  018C               	clrf	12	;volatile
  4700                           
  4701                           ;mcc_generated_files/pin_manager.c: 83:     WPUC = 0x00;
  4702  0152  018E               	clrf	14	;volatile
  4703                           
  4704                           ;mcc_generated_files/pin_manager.c: 88:     ODCONA = 0x00;
  4705  0153  0025               	movlb	5	; select bank5
  4706  0154  018C               	clrf	12	;volatile
  4707                           
  4708                           ;mcc_generated_files/pin_manager.c: 89:     ODCONB = 0x00;
  4709  0155  018D               	clrf	13	;volatile
  4710                           
  4711                           ;mcc_generated_files/pin_manager.c: 90:     ODCONC = 0x00;
  4712  0156  018E               	clrf	14	;volatile
  4713  0157                     l2867:	
  4714                           
  4715                           ;mcc_generated_files/pin_manager.c: 95:     SLRCONA = 0x37;
  4716  0157  3037               	movlw	55
  4717  0158  0026               	movlb	6	; select bank6
  4718  0159  008C               	movwf	12	;volatile
  4719  015A                     l2869:	
  4720                           
  4721                           ;mcc_generated_files/pin_manager.c: 96:     SLRCONB = 0xF0;
  4722  015A  30F0               	movlw	240
  4723  015B  008D               	movwf	13	;volatile
  4724  015C                     l2871:	
  4725                           
  4726                           ;mcc_generated_files/pin_manager.c: 97:     SLRCONC = 0xFF;
  4727  015C  30FF               	movlw	255
  4728  015D  008E               	movwf	14	;volatile
  4729  015E                     l2873:	
  4730                           
  4731                           ;mcc_generated_files/pin_manager.c: 102:     INLVLA = 0x3F;
  4732  015E  303F               	movlw	63
  4733  015F  0027               	movlb	7	; select bank7
  4734  0160  008C               	movwf	12	;volatile
  4735  0161                     l2875:	
  4736                           
  4737                           ;mcc_generated_files/pin_manager.c: 103:     INLVLB = 0xF0;
  4738  0161  30F0               	movlw	240
  4739  0162  008D               	movwf	13	;volatile
  4740  0163                     l2877:	
  4741                           
  4742                           ;mcc_generated_files/pin_manager.c: 104:     INLVLC = 0xFF;
  4743  0163  30FF               	movlw	255
  4744  0164  008E               	movwf	14	;volatile
  4745  0165                     l2879:	
  4746                           
  4747                           ;mcc_generated_files/pin_manager.c: 113:     RXPPS = 0x0E;
  4748  0165  300E               	movlw	14
  4749  0166  003C               	movlb	28	; select bank28
  4750  0167  00A4               	movwf	36	;volatile
  4751  0168                     l2881:	
  4752                           
  4753                           ;mcc_generated_files/pin_manager.c: 114:     SSP1CLKPPS = 0x0D;
  4754  0168  300D               	movlw	13
  4755  0169  00A0               	movwf	32	;volatile
  4756  016A                     l2883:	
  4757                           
  4758                           ;mcc_generated_files/pin_manager.c: 115:     RB7PPS = 0x14;
  4759  016A  3014               	movlw	20
  4760  016B  003D               	movlb	29	; select bank29
  4761  016C  009F               	movwf	31	;volatile
  4762  016D                     l2885:	
  4763                           
  4764                           ;mcc_generated_files/pin_manager.c: 116:     RB5PPS = 0x18;
  4765  016D  3018               	movlw	24
  4766  016E  009D               	movwf	29	;volatile
  4767  016F                     l2887:	
  4768                           
  4769                           ;mcc_generated_files/pin_manager.c: 117:     RB4PPS = 0x19;
  4770  016F  3019               	movlw	25
  4771  0170  009C               	movwf	28	;volatile
  4772  0171                     l2889:	
  4773                           
  4774                           ;mcc_generated_files/pin_manager.c: 118:     RC6PPS = 0x02;
  4775  0171  3002               	movlw	2
  4776  0172  00A6               	movwf	38	;volatile
  4777  0173                     l2891:	
  4778                           
  4779                           ;mcc_generated_files/pin_manager.c: 119:     SSP1DATPPS = 0x0C;
  4780  0173  300C               	movlw	12
  4781  0174  003C               	movlb	28	; select bank28
  4782  0175  00A1               	movwf	33	;volatile
  4783  0176                     l430:	
  4784  0176  0008               	return
  4785  0177                     __end_of_PIN_MANAGER_Initialize:	
  4786                           
  4787                           	psect	text11
  4788  025B                     __ptext11:	
  4789 ;; *************** function _OSCILLATOR_Initialize *****************
  4790 ;; Defined at:
  4791 ;;		line 63 in file "mcc_generated_files/mcc.c"
  4792 ;; Parameters:    Size  Location     Type
  4793 ;;		None
  4794 ;; Auto vars:     Size  Location     Type
  4795 ;;		None
  4796 ;; Return value:  Size  Location     Type
  4797 ;;                  1    wreg      void 
  4798 ;; Registers used:
  4799 ;;		wreg, status,2
  4800 ;; Tracked objects:
  4801 ;;		On entry : 0/0
  4802 ;;		On exit  : 0/0
  4803 ;;		Unchanged: 0/0
  4804 ;; Data sizes:     COMMON   BANK0   BANK1   BANK2   BANK3   BANK4   BANK5   BANK6   BANK7   BANK8   BANK9  BANK10  BANK1
      +1  BANK12  BANK13  BANK14  BANK15  BANK16  BANK17  BANK18  BANK19  BANK20  BANK21  BANK22  BANK23  BANK24  BANK25
  4805 ;;      Params:         0       0       0       0       0       0       0       0       0       0       0       0       
      +0       0       0       0       0       0       0       0       0       0       0       0       0       0       0
  4806 ;;      Locals:         0       0       0       0       0       0       0       0       0       0       0       0       
      +0       0       0       0       0       0       0       0       0       0       0       0       0       0       0
  4807 ;;      Temps:          0       0       0       0       0       0       0       0       0       0       0       0       
      +0       0       0       0       0       0       0       0       0       0       0       0       0       0       0
  4808 ;;      Totals:         0       0       0       0       0       0       0       0       0       0       0       0       
      +0       0       0       0       0       0       0       0       0       0       0       0       0       0       0
  4809 ;;Total ram usage:        0 bytes
  4810 ;; Hardware stack levels used:    1
  4811 ;; Hardware stack levels required when called:    4
  4812 ;; This function calls:
  4813 ;;		Nothing
  4814 ;; This function is called by:
  4815 ;;		_SYSTEM_Initialize
  4816 ;; This function uses a non-reentrant model
  4817 ;;
  4818                           
  4819                           
  4820                           ;psect for function _OSCILLATOR_Initialize
  4821  025B                     _OSCILLATOR_Initialize:	
  4822  025B                     l2893:	
  4823                           ;incstack = 0
  4824                           ; Regs used in _OSCILLATOR_Initialize: [wreg+status,2]
  4825                           
  4826                           
  4827                           ;mcc_generated_files/mcc.c: 66:     OSCCON1 = 0x60;
  4828  025B  3060               	movlw	96
  4829  025C  0032               	movlb	18	; select bank18
  4830  025D  0099               	movwf	25	;volatile
  4831  025E                     l2895:	
  4832                           
  4833                           ;mcc_generated_files/mcc.c: 68:     OSCCON3 = 0x00;
  4834  025E  019B               	clrf	27	;volatile
  4835  025F                     l2897:	
  4836                           
  4837                           ;mcc_generated_files/mcc.c: 70:     OSCEN = 0x00;
  4838  025F  019D               	clrf	29	;volatile
  4839                           
  4840                           ;mcc_generated_files/mcc.c: 72:     OSCFRQ = 0x06;
  4841  0260  3006               	movlw	6
  4842  0261  009F               	movwf	31	;volatile
  4843  0262                     l2899:	
  4844                           
  4845                           ;mcc_generated_files/mcc.c: 74:     OSCTUNE = 0x00;
  4846  0262  019E               	clrf	30	;volatile
  4847  0263                     l365:	
  4848  0263  0008               	return
  4849  0264                     __end_of_OSCILLATOR_Initialize:	
  4850                           
  4851                           	psect	text12
  4852  0264                     __ptext12:	
  4853 ;; *************** function _I2C1_Initialize *****************
  4854 ;; Defined at:
  4855 ;;		line 167 in file "mcc_generated_files/i2c1_master.c"
  4856 ;; Parameters:    Size  Location     Type
  4857 ;;		None
  4858 ;; Auto vars:     Size  Location     Type
  4859 ;;		None
  4860 ;; Return value:  Size  Location     Type
  4861 ;;                  1    wreg      void 
  4862 ;; Registers used:
  4863 ;;		wreg, status,2
  4864 ;; Tracked objects:
  4865 ;;		On entry : 0/0
  4866 ;;		On exit  : 0/0
  4867 ;;		Unchanged: 0/0
  4868 ;; Data sizes:     COMMON   BANK0   BANK1   BANK2   BANK3   BANK4   BANK5   BANK6   BANK7   BANK8   BANK9  BANK10  BANK1
      +1  BANK12  BANK13  BANK14  BANK15  BANK16  BANK17  BANK18  BANK19  BANK20  BANK21  BANK22  BANK23  BANK24  BANK25
  4869 ;;      Params:         0       0       0       0       0       0       0       0       0       0       0       0       
      +0       0       0       0       0       0       0       0       0       0       0       0       0       0       0
  4870 ;;      Locals:         0       0       0       0       0       0       0       0       0       0       0       0       
      +0       0       0       0       0       0       0       0       0       0       0       0       0       0       0
  4871 ;;      Temps:          0       0       0       0       0       0       0       0       0       0       0       0       
      +0       0       0       0       0       0       0       0       0       0       0       0       0       0       0
  4872 ;;      Totals:         0       0       0       0       0       0       0       0       0       0       0       0       
      +0       0       0       0       0       0       0       0       0       0       0       0       0       0       0
  4873 ;;Total ram usage:        0 bytes
  4874 ;; Hardware stack levels used:    1
  4875 ;; Hardware stack levels required when called:    4
  4876 ;; This function calls:
  4877 ;;		Nothing
  4878 ;; This function is called by:
  4879 ;;		_SYSTEM_Initialize
  4880 ;; This function uses a non-reentrant model
  4881 ;;
  4882                           
  4883                           
  4884                           ;psect for function _I2C1_Initialize
  4885  0264                     _I2C1_Initialize:	
  4886  0264                     l2845:	
  4887                           ;incstack = 0
  4888                           ; Regs used in _I2C1_Initialize: [wreg+status,2]
  4889                           
  4890                           
  4891                           ;mcc_generated_files/i2c1_master.c: 169:     SSP1STAT = 0x00;
  4892  0264  0024               	movlb	4	; select bank4
  4893  0265  0194               	clrf	20	;volatile
  4894  0266                     l2847:	
  4895                           
  4896                           ;mcc_generated_files/i2c1_master.c: 170:     SSP1CON1 = 0x08;
  4897  0266  3008               	movlw	8
  4898  0267  0095               	movwf	21	;volatile
  4899  0268                     l2849:	
  4900                           
  4901                           ;mcc_generated_files/i2c1_master.c: 171:     SSP1CON2 = 0x00;
  4902  0268  0196               	clrf	22	;volatile
  4903                           
  4904                           ;mcc_generated_files/i2c1_master.c: 172:     SSP1ADD = 0x27;
  4905  0269  3027               	movlw	39
  4906  026A  0092               	movwf	18	;volatile
  4907  026B                     l2851:	
  4908                           
  4909                           ;mcc_generated_files/i2c1_master.c: 173:     SSP1CON1bits.SSPEN = 0;
  4910  026B  1295               	bcf	21,5	;volatile
  4911  026C                     l538:	
  4912  026C  0008               	return
  4913  026D                     __end_of_I2C1_Initialize:	
  4914                           
  4915                           	psect	text13
  4916  00FD                     __ptext13:	
  4917 ;; *************** function _EUSART_Initialize *****************
  4918 ;; Defined at:
  4919 ;;		line 88 in file "mcc_generated_files/eusart.c"
  4920 ;; Parameters:    Size  Location     Type
  4921 ;;		None
  4922 ;; Auto vars:     Size  Location     Type
  4923 ;;		None
  4924 ;; Return value:  Size  Location     Type
  4925 ;;                  1    wreg      void 
  4926 ;; Registers used:
  4927 ;;		wreg, status,2, status,0, pclath, cstack
  4928 ;; Tracked objects:
  4929 ;;		On entry : 0/0
  4930 ;;		On exit  : 0/0
  4931 ;;		Unchanged: 0/0
  4932 ;; Data sizes:     COMMON   BANK0   BANK1   BANK2   BANK3   BANK4   BANK5   BANK6   BANK7   BANK8   BANK9  BANK10  BANK1
      +1  BANK12  BANK13  BANK14  BANK15  BANK16  BANK17  BANK18  BANK19  BANK20  BANK21  BANK22  BANK23  BANK24  BANK25
  4933 ;;      Params:         0       0       0       0       0       0       0       0       0       0       0       0       
      +0       0       0       0       0       0       0       0       0       0       0       0       0       0       0
  4934 ;;      Locals:         0       0       0       0       0       0       0       0       0       0       0       0       
      +0       0       0       0       0       0       0       0       0       0       0       0       0       0       0
  4935 ;;      Temps:          1       0       0       0       0       0       0       0       0       0       0       0       
      +0       0       0       0       0       0       0       0       0       0       0       0       0       0       0
  4936 ;;      Totals:         1       0       0       0       0       0       0       0       0       0       0       0       
      +0       0       0       0       0       0       0       0       0       0       0       0       0       0       0
  4937 ;;Total ram usage:        1 bytes
  4938 ;; Hardware stack levels used:    1
  4939 ;; Hardware stack levels required when called:    5
  4940 ;; This function calls:
  4941 ;;		_EUSART_SetErrorHandler
  4942 ;;		_EUSART_SetFramingErrorHandler
  4943 ;;		_EUSART_SetOverrunErrorHandler
  4944 ;;		_EUSART_SetRxInterruptHandler
  4945 ;;		_EUSART_SetTxInterruptHandler
  4946 ;; This function is called by:
  4947 ;;		_SYSTEM_Initialize
  4948 ;; This function uses a non-reentrant model
  4949 ;;
  4950                           
  4951                           
  4952                           ;psect for function _EUSART_Initialize
  4953  00FD                     _EUSART_Initialize:	
  4954  00FD                     l2799:	
  4955                           ;incstack = 0
  4956                           ; Regs used in _EUSART_Initialize: [wreg+status,2+status,0+pclath+cstack]
  4957                           
  4958                           
  4959                           ;mcc_generated_files/eusart.c: 91:     PIE1bits.RCIE = 0;
  4960  00FD  0021               	movlb	1	; select bank1
  4961  00FE  1291               	bcf	17,5	;volatile
  4962  00FF                     l2801:	
  4963                           
  4964                           ;mcc_generated_files/eusart.c: 92:     EUSART_SetRxInterruptHandler(EUSART_Receive_ISR);
  4965  00FF  3077               	movlw	low _EUSART_Receive_ISR
  4966  0100  00FA               	movwf	EUSART_SetRxInterruptHandler@interruptHandler
  4967  0101  3001               	movlw	high _EUSART_Receive_ISR
  4968  0102  00FB               	movwf	EUSART_SetRxInterruptHandler@interruptHandler+1
  4969  0103  3182  228F  3180   	fcall	_EUSART_SetRxInterruptHandler
  4970  0106                     l2803:	
  4971                           
  4972                           ;mcc_generated_files/eusart.c: 93:     PIE1bits.TXIE = 0;
  4973  0106  0021               	movlb	1	; select bank1
  4974  0107  1211               	bcf	17,4	;volatile
  4975                           
  4976                           ;mcc_generated_files/eusart.c: 94:     EUSART_SetTxInterruptHandler(EUSART_Transmit_ISR)
      +                          ;
  4977  0108  30B0               	movlw	low _EUSART_Transmit_ISR
  4978  0109  00FA               	movwf	EUSART_SetTxInterruptHandler@interruptHandler
  4979  010A  3001               	movlw	high _EUSART_Transmit_ISR
  4980  010B  00FB               	movwf	EUSART_SetTxInterruptHandler@interruptHandler+1
  4981  010C  3182  2289  3180   	fcall	_EUSART_SetTxInterruptHandler
  4982  010F                     l2805:	
  4983                           
  4984                           ;mcc_generated_files/eusart.c: 98:     BAUD1CON = 0x08;
  4985  010F  3008               	movlw	8
  4986  0110  0023               	movlb	3	; select bank3
  4987  0111  009F               	movwf	31	;volatile
  4988  0112                     l2807:	
  4989                           
  4990                           ;mcc_generated_files/eusart.c: 101:     RC1STA = 0x90;
  4991  0112  3090               	movlw	144
  4992  0113  009D               	movwf	29	;volatile
  4993  0114                     l2809:	
  4994                           
  4995                           ;mcc_generated_files/eusart.c: 104:     TX1STA = 0x24;
  4996  0114  3024               	movlw	36
  4997  0115  009E               	movwf	30	;volatile
  4998  0116                     l2811:	
  4999                           
  5000                           ;mcc_generated_files/eusart.c: 107:     SP1BRGL = 0x04;
  5001  0116  3004               	movlw	4
  5002  0117  009B               	movwf	27	;volatile
  5003  0118                     l2813:	
  5004                           
  5005                           ;mcc_generated_files/eusart.c: 110:     SP1BRGH = 0x0D;
  5006  0118  300D               	movlw	13
  5007  0119  009C               	movwf	28	;volatile
  5008  011A                     l2815:	
  5009                           
  5010                           ;mcc_generated_files/eusart.c: 113:     EUSART_SetFramingErrorHandler(EUSART_DefaultFram
      +                          ingErrorHandler);
  5011  011A  30BA               	movlw	low _EUSART_DefaultFramingErrorHandler
  5012  011B  00FA               	movwf	EUSART_SetFramingErrorHandler@interruptHandler
  5013  011C  3002               	movlw	high _EUSART_DefaultFramingErrorHandler
  5014  011D  00FB               	movwf	EUSART_SetFramingErrorHandler@interruptHandler+1
  5015  011E  3182  229B  3180   	fcall	_EUSART_SetFramingErrorHandler
  5016  0121                     l2817:	
  5017                           
  5018                           ;mcc_generated_files/eusart.c: 114:     EUSART_SetOverrunErrorHandler(EUSART_DefaultOver
      +                          runErrorHandler);
  5019  0121  30AF               	movlw	low _EUSART_DefaultOverrunErrorHandler
  5020  0122  00FA               	movwf	EUSART_SetOverrunErrorHandler@interruptHandler
  5021  0123  3002               	movlw	high _EUSART_DefaultOverrunErrorHandler
  5022  0124  00FB               	movwf	EUSART_SetOverrunErrorHandler@interruptHandler+1
  5023  0125  3182  2295  3180   	fcall	_EUSART_SetOverrunErrorHandler
  5024  0128                     l2819:	
  5025                           
  5026                           ;mcc_generated_files/eusart.c: 115:     EUSART_SetErrorHandler(EUSART_DefaultErrorHandle
      +                          r);
  5027  0128  30B3               	movlw	low _EUSART_DefaultErrorHandler
  5028  0129  00FA               	movwf	EUSART_SetErrorHandler@interruptHandler
  5029  012A  3002               	movlw	high _EUSART_DefaultErrorHandler
  5030  012B  00FB               	movwf	EUSART_SetErrorHandler@interruptHandler+1
  5031  012C  3182  22A1  3180   	fcall	_EUSART_SetErrorHandler
  5032  012F                     l2821:	
  5033                           
  5034                           ;mcc_generated_files/eusart.c: 117:     eusartRxLastError.status = 0;
  5035  012F  01F3               	clrf	_eusartRxLastError	;volatile
  5036  0130                     l2823:	
  5037                           
  5038                           ;mcc_generated_files/eusart.c: 120:     eusartTxHead = 0;
  5039  0130  01F8               	clrf	_eusartTxHead	;volatile
  5040  0131                     l2825:	
  5041                           
  5042                           ;mcc_generated_files/eusart.c: 121:     eusartTxTail = 0;
  5043  0131  01F7               	clrf	_eusartTxTail	;volatile
  5044  0132                     l2827:	
  5045                           
  5046                           ;mcc_generated_files/eusart.c: 122:     eusartTxBufferRemaining = sizeof(eusartTxBuffer)
      +                          ;
  5047  0132  3008               	movlw	8
  5048  0133  00FC               	movwf	??_EUSART_Initialize
  5049  0134  087C               	movf	??_EUSART_Initialize,w
  5050  0135  0020               	movlb	0	; select bank0
  5051  0136  00EB               	movwf	_eusartTxBufferRemaining	;volatile
  5052                           
  5053                           ;mcc_generated_files/eusart.c: 124:     eusartRxHead = 0;
  5054  0137  01F6               	clrf	_eusartRxHead	;volatile
  5055                           
  5056                           ;mcc_generated_files/eusart.c: 125:     eusartRxTail = 0;
  5057  0138  01F5               	clrf	_eusartRxTail	;volatile
  5058                           
  5059                           ;mcc_generated_files/eusart.c: 126:     eusartRxCount = 0;
  5060  0139  01F4               	clrf	_eusartRxCount	;volatile
  5061  013A                     l2829:	
  5062                           
  5063                           ;mcc_generated_files/eusart.c: 129:     PIE1bits.RCIE = 1;
  5064  013A  0021               	movlb	1	; select bank1
  5065  013B  1691               	bsf	17,5	;volatile
  5066  013C                     l191:	
  5067  013C  0008               	return
  5068  013D                     __end_of_EUSART_Initialize:	
  5069                           
  5070                           	psect	text14
  5071  0289                     __ptext14:	
  5072 ;; *************** function _EUSART_SetTxInterruptHandler *****************
  5073 ;; Defined at:
  5074 ;;		line 285 in file "mcc_generated_files/eusart.c"
  5075 ;; Parameters:    Size  Location     Type
  5076 ;;  interruptHan    2    1[COMMON] PTR FTN()void 
  5077 ;;		 -> EUSART_Transmit_ISR(1), 
  5078 ;; Auto vars:     Size  Location     Type
  5079 ;;		None
  5080 ;; Return value:  Size  Location     Type
  5081 ;;                  1    wreg      void 
  5082 ;; Registers used:
  5083 ;;		wreg
  5084 ;; Tracked objects:
  5085 ;;		On entry : 0/0
  5086 ;;		On exit  : 0/0
  5087 ;;		Unchanged: 0/0
  5088 ;; Data sizes:     COMMON   BANK0   BANK1   BANK2   BANK3   BANK4   BANK5   BANK6   BANK7   BANK8   BANK9  BANK10  BANK1
      +1  BANK12  BANK13  BANK14  BANK15  BANK16  BANK17  BANK18  BANK19  BANK20  BANK21  BANK22  BANK23  BANK24  BANK25
  5089 ;;      Params:         2       0       0       0       0       0       0       0       0       0       0       0       
      +0       0       0       0       0       0       0       0       0       0       0       0       0       0       0
  5090 ;;      Locals:         0       0       0       0       0       0       0       0       0       0       0       0       
      +0       0       0       0       0       0       0       0       0       0       0       0       0       0       0
  5091 ;;      Temps:          0       0       0       0       0       0       0       0       0       0       0       0       
      +0       0       0       0       0       0       0       0       0       0       0       0       0       0       0
  5092 ;;      Totals:         2       0       0       0       0       0       0       0       0       0       0       0       
      +0       0       0       0       0       0       0       0       0       0       0       0       0       0       0
  5093 ;;Total ram usage:        2 bytes
  5094 ;; Hardware stack levels used:    1
  5095 ;; Hardware stack levels required when called:    4
  5096 ;; This function calls:
  5097 ;;		Nothing
  5098 ;; This function is called by:
  5099 ;;		_EUSART_Initialize
  5100 ;; This function uses a non-reentrant model
  5101 ;;
  5102                           
  5103                           
  5104                           ;psect for function _EUSART_SetTxInterruptHandler
  5105  0289                     _EUSART_SetTxInterruptHandler:	
  5106  0289                     l2685:	
  5107                           ;incstack = 0
  5108                           ; Regs used in _EUSART_SetTxInterruptHandler: [wreg]
  5109                           
  5110                           
  5111                           ;mcc_generated_files/eusart.c: 286:     EUSART_TxDefaultInterruptHandler = interruptHand
      +                          ler;
  5112  0289  087B               	movf	EUSART_SetTxInterruptHandler@interruptHandler+1,w
  5113  028A  0020               	movlb	0	; select bank0
  5114  028B  00EA               	movwf	_EUSART_TxDefaultInterruptHandler+1
  5115  028C  087A               	movf	EUSART_SetTxInterruptHandler@interruptHandler,w
  5116  028D  00E9               	movwf	_EUSART_TxDefaultInterruptHandler
  5117  028E                     l263:	
  5118  028E  0008               	return
  5119  028F                     __end_of_EUSART_SetTxInterruptHandler:	
  5120                           
  5121                           	psect	text15
  5122  028F                     __ptext15:	
  5123 ;; *************** function _EUSART_SetRxInterruptHandler *****************
  5124 ;; Defined at:
  5125 ;;		line 289 in file "mcc_generated_files/eusart.c"
  5126 ;; Parameters:    Size  Location     Type
  5127 ;;  interruptHan    2    1[COMMON] PTR FTN()void 
  5128 ;;		 -> EUSART_Receive_ISR(1), 
  5129 ;; Auto vars:     Size  Location     Type
  5130 ;;		None
  5131 ;; Return value:  Size  Location     Type
  5132 ;;                  1    wreg      void 
  5133 ;; Registers used:
  5134 ;;		wreg
  5135 ;; Tracked objects:
  5136 ;;		On entry : 0/0
  5137 ;;		On exit  : 0/0
  5138 ;;		Unchanged: 0/0
  5139 ;; Data sizes:     COMMON   BANK0   BANK1   BANK2   BANK3   BANK4   BANK5   BANK6   BANK7   BANK8   BANK9  BANK10  BANK1
      +1  BANK12  BANK13  BANK14  BANK15  BANK16  BANK17  BANK18  BANK19  BANK20  BANK21  BANK22  BANK23  BANK24  BANK25
  5140 ;;      Params:         2       0       0       0       0       0       0       0       0       0       0       0       
      +0       0       0       0       0       0       0       0       0       0       0       0       0       0       0
  5141 ;;      Locals:         0       0       0       0       0       0       0       0       0       0       0       0       
      +0       0       0       0       0       0       0       0       0       0       0       0       0       0       0
  5142 ;;      Temps:          0       0       0       0       0       0       0       0       0       0       0       0       
      +0       0       0       0       0       0       0       0       0       0       0       0       0       0       0
  5143 ;;      Totals:         2       0       0       0       0       0       0       0       0       0       0       0       
      +0       0       0       0       0       0       0       0       0       0       0       0       0       0       0
  5144 ;;Total ram usage:        2 bytes
  5145 ;; Hardware stack levels used:    1
  5146 ;; Hardware stack levels required when called:    4
  5147 ;; This function calls:
  5148 ;;		Nothing
  5149 ;; This function is called by:
  5150 ;;		_EUSART_Initialize
  5151 ;; This function uses a non-reentrant model
  5152 ;;
  5153                           
  5154                           
  5155                           ;psect for function _EUSART_SetRxInterruptHandler
  5156  028F                     _EUSART_SetRxInterruptHandler:	
  5157  028F                     l2683:	
  5158                           ;incstack = 0
  5159                           ; Regs used in _EUSART_SetRxInterruptHandler: [wreg]
  5160                           
  5161                           
  5162                           ;mcc_generated_files/eusart.c: 290:     EUSART_RxDefaultInterruptHandler = interruptHand
      +                          ler;
  5163  028F  087B               	movf	EUSART_SetRxInterruptHandler@interruptHandler+1,w
  5164  0290  0020               	movlb	0	; select bank0
  5165  0291  00E8               	movwf	_EUSART_RxDefaultInterruptHandler+1
  5166  0292  087A               	movf	EUSART_SetRxInterruptHandler@interruptHandler,w
  5167  0293  00E7               	movwf	_EUSART_RxDefaultInterruptHandler
  5168  0294                     l266:	
  5169  0294  0008               	return
  5170  0295                     __end_of_EUSART_SetRxInterruptHandler:	
  5171                           
  5172                           	psect	text16
  5173  0295                     __ptext16:	
  5174 ;; *************** function _EUSART_SetOverrunErrorHandler *****************
  5175 ;; Defined at:
  5176 ;;		line 277 in file "mcc_generated_files/eusart.c"
  5177 ;; Parameters:    Size  Location     Type
  5178 ;;  interruptHan    2    1[COMMON] PTR FTN()void 
  5179 ;;		 -> EUSART_DefaultOverrunErrorHandler(1), 
  5180 ;; Auto vars:     Size  Location     Type
  5181 ;;		None
  5182 ;; Return value:  Size  Location     Type
  5183 ;;                  1    wreg      void 
  5184 ;; Registers used:
  5185 ;;		wreg
  5186 ;; Tracked objects:
  5187 ;;		On entry : 0/0
  5188 ;;		On exit  : 0/0
  5189 ;;		Unchanged: 0/0
  5190 ;; Data sizes:     COMMON   BANK0   BANK1   BANK2   BANK3   BANK4   BANK5   BANK6   BANK7   BANK8   BANK9  BANK10  BANK1
      +1  BANK12  BANK13  BANK14  BANK15  BANK16  BANK17  BANK18  BANK19  BANK20  BANK21  BANK22  BANK23  BANK24  BANK25
  5191 ;;      Params:         2       0       0       0       0       0       0       0       0       0       0       0       
      +0       0       0       0       0       0       0       0       0       0       0       0       0       0       0
  5192 ;;      Locals:         0       0       0       0       0       0       0       0       0       0       0       0       
      +0       0       0       0       0       0       0       0       0       0       0       0       0       0       0
  5193 ;;      Temps:          0       0       0       0       0       0       0       0       0       0       0       0       
      +0       0       0       0       0       0       0       0       0       0       0       0       0       0       0
  5194 ;;      Totals:         2       0       0       0       0       0       0       0       0       0       0       0       
      +0       0       0       0       0       0       0       0       0       0       0       0       0       0       0
  5195 ;;Total ram usage:        2 bytes
  5196 ;; Hardware stack levels used:    1
  5197 ;; Hardware stack levels required when called:    4
  5198 ;; This function calls:
  5199 ;;		Nothing
  5200 ;; This function is called by:
  5201 ;;		_EUSART_Initialize
  5202 ;; This function uses a non-reentrant model
  5203 ;;
  5204                           
  5205                           
  5206                           ;psect for function _EUSART_SetOverrunErrorHandler
  5207  0295                     _EUSART_SetOverrunErrorHandler:	
  5208  0295                     l2689:	
  5209                           ;incstack = 0
  5210                           ; Regs used in _EUSART_SetOverrunErrorHandler: [wreg]
  5211                           
  5212                           
  5213                           ;mcc_generated_files/eusart.c: 278:     EUSART_OverrunErrorHandler = interruptHandler;
  5214  0295  087B               	movf	EUSART_SetOverrunErrorHandler@interruptHandler+1,w
  5215  0296  0021               	movlb	1	; select bank1
  5216  0297  00D2               	movwf	(_EUSART_OverrunErrorHandler+1)^(0+128)
  5217  0298  087A               	movf	EUSART_SetOverrunErrorHandler@interruptHandler,w
  5218  0299  00D1               	movwf	_EUSART_OverrunErrorHandler^(0+128)
  5219  029A                     l257:	
  5220  029A  0008               	return
  5221  029B                     __end_of_EUSART_SetOverrunErrorHandler:	
  5222                           
  5223                           	psect	text17
  5224  029B                     __ptext17:	
  5225 ;; *************** function _EUSART_SetFramingErrorHandler *****************
  5226 ;; Defined at:
  5227 ;;		line 273 in file "mcc_generated_files/eusart.c"
  5228 ;; Parameters:    Size  Location     Type
  5229 ;;  interruptHan    2    1[COMMON] PTR FTN()void 
  5230 ;;		 -> EUSART_DefaultFramingErrorHandler(1), 
  5231 ;; Auto vars:     Size  Location     Type
  5232 ;;		None
  5233 ;; Return value:  Size  Location     Type
  5234 ;;                  1    wreg      void 
  5235 ;; Registers used:
  5236 ;;		wreg
  5237 ;; Tracked objects:
  5238 ;;		On entry : 0/0
  5239 ;;		On exit  : 0/0
  5240 ;;		Unchanged: 0/0
  5241 ;; Data sizes:     COMMON   BANK0   BANK1   BANK2   BANK3   BANK4   BANK5   BANK6   BANK7   BANK8   BANK9  BANK10  BANK1
      +1  BANK12  BANK13  BANK14  BANK15  BANK16  BANK17  BANK18  BANK19  BANK20  BANK21  BANK22  BANK23  BANK24  BANK25
  5242 ;;      Params:         2       0       0       0       0       0       0       0       0       0       0       0       
      +0       0       0       0       0       0       0       0       0       0       0       0       0       0       0
  5243 ;;      Locals:         0       0       0       0       0       0       0       0       0       0       0       0       
      +0       0       0       0       0       0       0       0       0       0       0       0       0       0       0
  5244 ;;      Temps:          0       0       0       0       0       0       0       0       0       0       0       0       
      +0       0       0       0       0       0       0       0       0       0       0       0       0       0       0
  5245 ;;      Totals:         2       0       0       0       0       0       0       0       0       0       0       0       
      +0       0       0       0       0       0       0       0       0       0       0       0       0       0       0
  5246 ;;Total ram usage:        2 bytes
  5247 ;; Hardware stack levels used:    1
  5248 ;; Hardware stack levels required when called:    4
  5249 ;; This function calls:
  5250 ;;		Nothing
  5251 ;; This function is called by:
  5252 ;;		_EUSART_Initialize
  5253 ;; This function uses a non-reentrant model
  5254 ;;
  5255                           
  5256                           
  5257                           ;psect for function _EUSART_SetFramingErrorHandler
  5258  029B                     _EUSART_SetFramingErrorHandler:	
  5259  029B                     l2687:	
  5260                           ;incstack = 0
  5261                           ; Regs used in _EUSART_SetFramingErrorHandler: [wreg]
  5262                           
  5263                           
  5264                           ;mcc_generated_files/eusart.c: 274:     EUSART_FramingErrorHandler = interruptHandler;
  5265  029B  087B               	movf	EUSART_SetFramingErrorHandler@interruptHandler+1,w
  5266  029C  0021               	movlb	1	; select bank1
  5267  029D  00D4               	movwf	(_EUSART_FramingErrorHandler+1)^(0+128)
  5268  029E  087A               	movf	EUSART_SetFramingErrorHandler@interruptHandler,w
  5269  029F  00D3               	movwf	_EUSART_FramingErrorHandler^(0+128)
  5270  02A0                     l254:	
  5271  02A0  0008               	return
  5272  02A1                     __end_of_EUSART_SetFramingErrorHandler:	
  5273                           
  5274                           	psect	text18
  5275  02A1                     __ptext18:	
  5276 ;; *************** function _EUSART_SetErrorHandler *****************
  5277 ;; Defined at:
  5278 ;;		line 281 in file "mcc_generated_files/eusart.c"
  5279 ;; Parameters:    Size  Location     Type
  5280 ;;  interruptHan    2    1[COMMON] PTR FTN()void 
  5281 ;;		 -> EUSART_DefaultErrorHandler(1), 
  5282 ;; Auto vars:     Size  Location     Type
  5283 ;;		None
  5284 ;; Return value:  Size  Location     Type
  5285 ;;                  1    wreg      void 
  5286 ;; Registers used:
  5287 ;;		wreg
  5288 ;; Tracked objects:
  5289 ;;		On entry : 0/0
  5290 ;;		On exit  : 0/0
  5291 ;;		Unchanged: 0/0
  5292 ;; Data sizes:     COMMON   BANK0   BANK1   BANK2   BANK3   BANK4   BANK5   BANK6   BANK7   BANK8   BANK9  BANK10  BANK1
      +1  BANK12  BANK13  BANK14  BANK15  BANK16  BANK17  BANK18  BANK19  BANK20  BANK21  BANK22  BANK23  BANK24  BANK25
  5293 ;;      Params:         2       0       0       0       0       0       0       0       0       0       0       0       
      +0       0       0       0       0       0       0       0       0       0       0       0       0       0       0
  5294 ;;      Locals:         0       0       0       0       0       0       0       0       0       0       0       0       
      +0       0       0       0       0       0       0       0       0       0       0       0       0       0       0
  5295 ;;      Temps:          0       0       0       0       0       0       0       0       0       0       0       0       
      +0       0       0       0       0       0       0       0       0       0       0       0       0       0       0
  5296 ;;      Totals:         2       0       0       0       0       0       0       0       0       0       0       0       
      +0       0       0       0       0       0       0       0       0       0       0       0       0       0       0
  5297 ;;Total ram usage:        2 bytes
  5298 ;; Hardware stack levels used:    1
  5299 ;; Hardware stack levels required when called:    4
  5300 ;; This function calls:
  5301 ;;		Nothing
  5302 ;; This function is called by:
  5303 ;;		_EUSART_Initialize
  5304 ;; This function uses a non-reentrant model
  5305 ;;
  5306                           
  5307                           
  5308                           ;psect for function _EUSART_SetErrorHandler
  5309  02A1                     _EUSART_SetErrorHandler:	
  5310  02A1                     l2691:	
  5311                           ;incstack = 0
  5312                           ; Regs used in _EUSART_SetErrorHandler: [wreg]
  5313                           
  5314                           
  5315                           ;mcc_generated_files/eusart.c: 282:     EUSART_ErrorHandler = interruptHandler;
  5316  02A1  087B               	movf	EUSART_SetErrorHandler@interruptHandler+1,w
  5317  02A2  0021               	movlb	1	; select bank1
  5318  02A3  00D0               	movwf	(_EUSART_ErrorHandler+1)^(0+128)
  5319  02A4  087A               	movf	EUSART_SetErrorHandler@interruptHandler,w
  5320  02A5  00CF               	movwf	_EUSART_ErrorHandler^(0+128)
  5321  02A6                     l260:	
  5322  02A6  0008               	return
  5323  02A7                     __end_of_EUSART_SetErrorHandler:	
  5324                           
  5325                           	psect	intentry
  5326  0004                     __pintentry:	
  5327 ;; *************** function _INTERRUPT_InterruptManager *****************
  5328 ;; Defined at:
  5329 ;;		line 52 in file "mcc_generated_files/interrupt_manager.c"
  5330 ;; Parameters:    Size  Location     Type
  5331 ;;		None
  5332 ;; Auto vars:     Size  Location     Type
  5333 ;;		None
  5334 ;; Return value:  Size  Location     Type
  5335 ;;                  1    wreg      void 
  5336 ;; Registers used:
  5337 ;;		wreg, fsr1l, fsr1h, status,2, status,0, pclath, cstack
  5338 ;; Tracked objects:
  5339 ;;		On entry : 0/0
  5340 ;;		On exit  : 0/0
  5341 ;;		Unchanged: 0/0
  5342 ;; Data sizes:     COMMON   BANK0   BANK1   BANK2   BANK3   BANK4   BANK5   BANK6   BANK7   BANK8   BANK9  BANK10  BANK1
      +1  BANK12  BANK13  BANK14  BANK15  BANK16  BANK17  BANK18  BANK19  BANK20  BANK21  BANK22  BANK23  BANK24  BANK25
  5343 ;;      Params:         0       0       0       0       0       0       0       0       0       0       0       0       
      +0       0       0       0       0       0       0       0       0       0       0       0       0       0       0
  5344 ;;      Locals:         0       0       0       0       0       0       0       0       0       0       0       0       
      +0       0       0       0       0       0       0       0       0       0       0       0       0       0       0
  5345 ;;      Temps:          0       0       0       0       0       0       0       0       0       0       0       0       
      +0       0       0       0       0       0       0       0       0       0       0       0       0       0       0
  5346 ;;      Totals:         0       0       0       0       0       0       0       0       0       0       0       0       
      +0       0       0       0       0       0       0       0       0       0       0       0       0       0       0
  5347 ;;Total ram usage:        0 bytes
  5348 ;; Hardware stack levels used:    1
  5349 ;; Hardware stack levels required when called:    3
  5350 ;; This function calls:
  5351 ;;		Absolute function
  5352 ;;		_EUSART_Receive_ISR
  5353 ;;		_EUSART_Transmit_ISR
  5354 ;; This function is called by:
  5355 ;;		Interrupt level 1
  5356 ;; This function uses a non-reentrant model
  5357 ;;
  5358                           
  5359  0004                     _INTERRUPT_InterruptManager:	
  5360                           
  5361                           ;incstack = 0
  5362  0004  147E               	bsf	int$flags,0	;set compiler interrupt flag (level 1)
  5363                           
  5364                           ; Regs used in _INTERRUPT_InterruptManager: [wreg+fsr1l+fsr1h+status,2+status,0+pclath+c
      +                          stack]
  5365  0005  3180               	pagesel	$
  5366  0006                     i1l3135:	
  5367                           
  5368                           ;mcc_generated_files/interrupt_manager.c: 55:     if(INTCONbits.PEIE == 1)
  5369  0006  1F0B               	btfss	11,6	;volatile
  5370  0007  2809               	goto	u99_21
  5371  0008  280A               	goto	u99_20
  5372  0009                     u99_21:	
  5373  0009  282A               	goto	i1l319
  5374  000A                     u99_20:	
  5375  000A                     i1l3137:	
  5376                           
  5377                           ;mcc_generated_files/interrupt_manager.c: 56:     {;mcc_generated_files/interrupt_manage
      +                          r.c: 57:         if(PIE1bits.TXIE == 1 && PIR1bits.TXIF == 1)
  5378  000A  0021               	movlb	1	; select bank1
  5379  000B  1E11               	btfss	17,4	;volatile
  5380  000C  280E               	goto	u100_21
  5381  000D  280F               	goto	u100_20
  5382  000E                     u100_21:	
  5383  000E  281A               	goto	i1l314
  5384  000F                     u100_20:	
  5385  000F                     i1l3139:	
  5386  000F  0020               	movlb	0	; select bank0
  5387  0010  1E11               	btfss	17,4	;volatile
  5388  0011  2813               	goto	u101_21
  5389  0012  2814               	goto	u101_20
  5390  0013                     u101_21:	
  5391  0013  281A               	goto	i1l314
  5392  0014                     u101_20:	
  5393  0014                     i1l3141:	
  5394                           
  5395                           ;mcc_generated_files/interrupt_manager.c: 58:         {;mcc_generated_files/interrupt_ma
      +                          nager.c: 59:             EUSART_TxDefaultInterruptHandler();
  5396  0014  086A               	movf	_EUSART_TxDefaultInterruptHandler+1,w
  5397  0015  008A               	movwf	10
  5398  0016  0869               	movf	_EUSART_TxDefaultInterruptHandler,w
  5399  0017  000A               	callw
  5400  0018  3180               	pagesel	$
  5401                           
  5402                           ;mcc_generated_files/interrupt_manager.c: 60:         }
  5403  0019  282A               	goto	i1l319
  5404  001A                     i1l314:	
  5405                           ;mcc_generated_files/interrupt_manager.c: 61:         else if(PIE1bits.RCIE == 1 && PIR1
      +                          bits.RCIF == 1)
  5406                           
  5407  001A  0021               	movlb	1	; select bank1
  5408  001B  1E91               	btfss	17,5	;volatile
  5409  001C  281E               	goto	u102_21
  5410  001D  281F               	goto	u102_20
  5411  001E                     u102_21:	
  5412  001E  282A               	goto	i1l315
  5413  001F                     u102_20:	
  5414  001F                     i1l3143:	
  5415  001F  0020               	movlb	0	; select bank0
  5416  0020  1E91               	btfss	17,5	;volatile
  5417  0021  2823               	goto	u103_21
  5418  0022  2824               	goto	u103_20
  5419  0023                     u103_21:	
  5420  0023  282A               	goto	i1l315
  5421  0024                     u103_20:	
  5422  0024                     i1l3145:	
  5423                           
  5424                           ;mcc_generated_files/interrupt_manager.c: 62:         {;mcc_generated_files/interrupt_ma
      +                          nager.c: 63:             EUSART_RxDefaultInterruptHandler();
  5425  0024  0868               	movf	_EUSART_RxDefaultInterruptHandler+1,w
  5426  0025  008A               	movwf	10
  5427  0026  0867               	movf	_EUSART_RxDefaultInterruptHandler,w
  5428  0027  000A               	callw
  5429  0028  3180               	pagesel	$
  5430                           
  5431                           ;mcc_generated_files/interrupt_manager.c: 64:         }
  5432  0029  282A               	goto	i1l319
  5433  002A                     i1l315:	
  5434  002A                     i1l319:	
  5435                           ;mcc_generated_files/interrupt_manager.c: 69:     }
  5436                           
  5437  002A  107E               	bcf	int$flags,0	;clear compiler interrupt flag (level 1)
  5438  002B  0009               	retfie
  5439  002C                     __end_of_INTERRUPT_InterruptManager:	
  5440                           
  5441                           	psect	text20
  5442  01B0                     __ptext20:	
  5443 ;; *************** function _EUSART_Transmit_ISR *****************
  5444 ;; Defined at:
  5445 ;;		line 206 in file "mcc_generated_files/eusart.c"
  5446 ;; Parameters:    Size  Location     Type
  5447 ;;		None
  5448 ;; Auto vars:     Size  Location     Type
  5449 ;;		None
  5450 ;; Return value:  Size  Location     Type
  5451 ;;                  1    wreg      void 
  5452 ;; Registers used:
  5453 ;;		wreg, fsr1l, fsr1h, status,2, status,0
  5454 ;; Tracked objects:
  5455 ;;		On entry : 0/0
  5456 ;;		On exit  : 0/0
  5457 ;;		Unchanged: 0/0
  5458 ;; Data sizes:     COMMON   BANK0   BANK1   BANK2   BANK3   BANK4   BANK5   BANK6   BANK7   BANK8   BANK9  BANK10  BANK1
      +1  BANK12  BANK13  BANK14  BANK15  BANK16  BANK17  BANK18  BANK19  BANK20  BANK21  BANK22  BANK23  BANK24  BANK25
  5459 ;;      Params:         0       0       0       0       0       0       0       0       0       0       0       0       
      +0       0       0       0       0       0       0       0       0       0       0       0       0       0       0
  5460 ;;      Locals:         0       0       0       0       0       0       0       0       0       0       0       0       
      +0       0       0       0       0       0       0       0       0       0       0       0       0       0       0
  5461 ;;      Temps:          1       0       0       0       0       0       0       0       0       0       0       0       
      +0       0       0       0       0       0       0       0       0       0       0       0       0       0       0
  5462 ;;      Totals:         1       0       0       0       0       0       0       0       0       0       0       0       
      +0       0       0       0       0       0       0       0       0       0       0       0       0       0       0
  5463 ;;Total ram usage:        1 bytes
  5464 ;; Hardware stack levels used:    1
  5465 ;; This function calls:
  5466 ;;		Nothing
  5467 ;; This function is called by:
  5468 ;;		_EUSART_Initialize
  5469 ;;		_INTERRUPT_InterruptManager
  5470 ;; This function uses a non-reentrant model
  5471 ;;
  5472                           
  5473                           
  5474                           ;psect for function _EUSART_Transmit_ISR
  5475  01B0                     _EUSART_Transmit_ISR:	
  5476  01B0                     i1l2965:	
  5477                           ;incstack = 0
  5478                           ; Regs used in _EUSART_Transmit_ISR: [wreg+fsr1l+fsr1h+status,2+status,0]
  5479                           
  5480                           
  5481                           ;mcc_generated_files/eusart.c: 210:     if(sizeof(eusartTxBuffer) > eusartTxBufferRemain
      +                          ing)
  5482  01B0  3008               	movlw	8
  5483  01B1  0020               	movlb	0	; select bank0
  5484  01B2  026B               	subwf	_eusartTxBufferRemaining,w	;volatile
  5485  01B3  1803               	skipnc
  5486  01B4  29B6               	goto	u79_21
  5487  01B5  29B7               	goto	u79_20
  5488  01B6                     u79_21:	
  5489  01B6  29CF               	goto	i1l228
  5490  01B7                     u79_20:	
  5491  01B7                     i1l2967:	
  5492                           
  5493                           ;mcc_generated_files/eusart.c: 211:     {;mcc_generated_files/eusart.c: 212:         TX1
      +                          REG = eusartTxBuffer[eusartTxTail++];
  5494  01B7  0877               	movf	_eusartTxTail,w
  5495  01B8  3EBF               	addlw	(low (_eusartTxBuffer| 0))& (0+255)
  5496  01B9  0086               	movwf	6
  5497  01BA  0187               	clrf	7
  5498  01BB  0801               	movf	1,w
  5499  01BC  0023               	movlb	3	; select bank3
  5500  01BD  009A               	movwf	26	;volatile
  5501  01BE                     i1l2969:	
  5502  01BE  3001               	movlw	1
  5503  01BF  00F9               	movwf	??_EUSART_Transmit_ISR
  5504  01C0  0879               	movf	??_EUSART_Transmit_ISR,w
  5505  01C1  07F7               	addwf	_eusartTxTail,f	;volatile
  5506  01C2                     i1l2971:	
  5507                           
  5508                           ;mcc_generated_files/eusart.c: 213:         if(sizeof(eusartTxBuffer) <= eusartTxTail)
  5509  01C2  3008               	movlw	8
  5510  01C3  0277               	subwf	_eusartTxTail,w	;volatile
  5511  01C4  1C03               	skipc
  5512  01C5  29C7               	goto	u80_21
  5513  01C6  29C8               	goto	u80_20
  5514  01C7                     u80_21:	
  5515  01C7  29C9               	goto	i1l2975
  5516  01C8                     u80_20:	
  5517  01C8                     i1l2973:	
  5518                           
  5519                           ;mcc_generated_files/eusart.c: 214:         {;mcc_generated_files/eusart.c: 215:        
      +                               eusartTxTail = 0;
  5520  01C8  01F7               	clrf	_eusartTxTail	;volatile
  5521  01C9                     i1l2975:	
  5522                           
  5523                           ;mcc_generated_files/eusart.c: 217:         eusartTxBufferRemaining++;
  5524  01C9  3001               	movlw	1
  5525  01CA  00F9               	movwf	??_EUSART_Transmit_ISR
  5526  01CB  0879               	movf	??_EUSART_Transmit_ISR,w
  5527  01CC  0020               	movlb	0	; select bank0
  5528  01CD  07EB               	addwf	_eusartTxBufferRemaining,f	;volatile
  5529                           
  5530                           ;mcc_generated_files/eusart.c: 218:     }
  5531  01CE  29D1               	goto	i1l231
  5532  01CF                     i1l228:	
  5533                           ;mcc_generated_files/eusart.c: 219:     else
  5534                           
  5535                           
  5536                           ;mcc_generated_files/eusart.c: 220:     {;mcc_generated_files/eusart.c: 221:         PIE
      +                          1bits.TXIE = 0;
  5537  01CF  0021               	movlb	1	; select bank1
  5538  01D0  1211               	bcf	17,4	;volatile
  5539  01D1                     i1l231:	
  5540  01D1  0008               	return
  5541  01D2                     __end_of_EUSART_Transmit_ISR:	
  5542                           
  5543                           	psect	text21
  5544  0177                     __ptext21:	
  5545 ;; *************** function _EUSART_Receive_ISR *****************
  5546 ;; Defined at:
  5547 ;;		line 225 in file "mcc_generated_files/eusart.c"
  5548 ;; Parameters:    Size  Location     Type
  5549 ;;		None
  5550 ;; Auto vars:     Size  Location     Type
  5551 ;;		None
  5552 ;; Return value:  Size  Location     Type
  5553 ;;                  1    wreg      void 
  5554 ;; Registers used:
  5555 ;;		wreg, fsr1l, fsr1h, status,2, status,0, pclath, cstack
  5556 ;; Tracked objects:
  5557 ;;		On entry : 0/0
  5558 ;;		On exit  : 0/0
  5559 ;;		Unchanged: 0/0
  5560 ;; Data sizes:     COMMON   BANK0   BANK1   BANK2   BANK3   BANK4   BANK5   BANK6   BANK7   BANK8   BANK9  BANK10  BANK1
      +1  BANK12  BANK13  BANK14  BANK15  BANK16  BANK17  BANK18  BANK19  BANK20  BANK21  BANK22  BANK23  BANK24  BANK25
  5561 ;;      Params:         0       0       0       0       0       0       0       0       0       0       0       0       
      +0       0       0       0       0       0       0       0       0       0       0       0       0       0       0
  5562 ;;      Locals:         0       0       0       0       0       0       0       0       0       0       0       0       
      +0       0       0       0       0       0       0       0       0       0       0       0       0       0       0
  5563 ;;      Temps:          0       0       0       0       0       0       0       0       0       0       0       0       
      +0       0       0       0       0       0       0       0       0       0       0       0       0       0       0
  5564 ;;      Totals:         0       0       0       0       0       0       0       0       0       0       0       0       
      +0       0       0       0       0       0       0       0       0       0       0       0       0       0       0
  5565 ;;Total ram usage:        0 bytes
  5566 ;; Hardware stack levels used:    1
  5567 ;; Hardware stack levels required when called:    2
  5568 ;; This function calls:
  5569 ;;		Absolute function
  5570 ;;		_EUSART_DefaultErrorHandler
  5571 ;;		_EUSART_DefaultFramingErrorHandler
  5572 ;;		_EUSART_DefaultOverrunErrorHandler
  5573 ;;		_EUSART_RxDataHandler
  5574 ;; This function is called by:
  5575 ;;		_EUSART_Initialize
  5576 ;;		_INTERRUPT_InterruptManager
  5577 ;; This function uses a non-reentrant model
  5578 ;;
  5579                           
  5580                           
  5581                           ;psect for function _EUSART_Receive_ISR
  5582  0177                     _EUSART_Receive_ISR:	
  5583  0177                     i1l2977:	
  5584                           ;incstack = 0
  5585                           ; Regs used in _EUSART_Receive_ISR: [wreg+fsr1l+fsr1h+status,2+status,0+pclath+cstack]
  5586                           
  5587                           
  5588                           ;mcc_generated_files/eusart.c: 228:     eusartRxStatusBuffer[eusartRxHead].status = 0;
  5589  0177  0876               	movf	_eusartRxHead,w	;volatile
  5590  0178  3E3D               	addlw	(low (_eusartRxStatusBuffer| 0))& (0+255)
  5591  0179  0086               	movwf	6
  5592  017A  0187               	clrf	7
  5593  017B  0181               	clrf	1
  5594  017C                     i1l2979:	
  5595                           
  5596                           ;mcc_generated_files/eusart.c: 230:     if(RC1STAbits.FERR){
  5597  017C  0023               	movlb	3	; select bank3
  5598  017D  1D1D               	btfss	29,2	;volatile
  5599  017E  2980               	goto	u81_21
  5600  017F  2981               	goto	u81_20
  5601  0180                     u81_21:	
  5602  0180  298C               	goto	i1l2985
  5603  0181                     u81_20:	
  5604  0181                     i1l2981:	
  5605                           
  5606                           ;mcc_generated_files/eusart.c: 231:         eusartRxStatusBuffer[eusartRxHead].ferr = 1;
  5607  0181  0876               	movf	_eusartRxHead,w	;volatile
  5608  0182  3E3D               	addlw	(low (_eusartRxStatusBuffer| 0))& (0+255)
  5609  0183  0086               	movwf	6
  5610  0184  0187               	clrf	7
  5611  0185  1481               	bsf	1,1
  5612  0186                     i1l2983:	
  5613                           
  5614                           ;mcc_generated_files/eusart.c: 232:         EUSART_FramingErrorHandler();
  5615  0186  0021               	movlb	1	; select bank1
  5616  0187  0854               	movf	(_EUSART_FramingErrorHandler+1)^(0+128),w
  5617  0188  008A               	movwf	10
  5618  0189  0853               	movf	_EUSART_FramingErrorHandler^(0+128),w
  5619  018A  000A               	callw
  5620  018B  3181               	pagesel	$
  5621  018C                     i1l2985:	
  5622                           
  5623                           ;mcc_generated_files/eusart.c: 235:     if(RC1STAbits.OERR){
  5624  018C  0023               	movlb	3	; select bank3
  5625  018D  1C9D               	btfss	29,1	;volatile
  5626  018E  2990               	goto	u82_21
  5627  018F  2991               	goto	u82_20
  5628  0190                     u82_21:	
  5629  0190  299C               	goto	i1l2991
  5630  0191                     u82_20:	
  5631  0191                     i1l2987:	
  5632                           
  5633                           ;mcc_generated_files/eusart.c: 236:         eusartRxStatusBuffer[eusartRxHead].oerr = 1;
  5634  0191  0876               	movf	_eusartRxHead,w	;volatile
  5635  0192  3E3D               	addlw	(low (_eusartRxStatusBuffer| 0))& (0+255)
  5636  0193  0086               	movwf	6
  5637  0194  0187               	clrf	7
  5638  0195  1501               	bsf	1,2
  5639  0196                     i1l2989:	
  5640                           
  5641                           ;mcc_generated_files/eusart.c: 237:         EUSART_OverrunErrorHandler();
  5642  0196  0021               	movlb	1	; select bank1
  5643  0197  0852               	movf	(_EUSART_OverrunErrorHandler+1)^(0+128),w
  5644  0198  008A               	movwf	10
  5645  0199  0851               	movf	_EUSART_OverrunErrorHandler^(0+128),w
  5646  019A  000A               	callw
  5647  019B  3181               	pagesel	$
  5648  019C                     i1l2991:	
  5649                           
  5650                           ;mcc_generated_files/eusart.c: 240:     if(eusartRxStatusBuffer[eusartRxHead].status){
  5651  019C  0876               	movf	_eusartRxHead,w	;volatile
  5652  019D  3E3D               	addlw	(low (_eusartRxStatusBuffer| 0))& (0+255)
  5653  019E  0086               	movwf	6
  5654  019F  0187               	clrf	7
  5655  01A0  0801               	movf	1,w
  5656  01A1  1903               	btfsc	3,2
  5657  01A2  29A4               	goto	u83_21
  5658  01A3  29A5               	goto	u83_20
  5659  01A4                     u83_21:	
  5660  01A4  29AC               	goto	i1l2995
  5661  01A5                     u83_20:	
  5662  01A5                     i1l2993:	
  5663                           
  5664                           ;mcc_generated_files/eusart.c: 241:         EUSART_ErrorHandler();
  5665  01A5  0021               	movlb	1	; select bank1
  5666  01A6  0850               	movf	(_EUSART_ErrorHandler+1)^(0+128),w
  5667  01A7  008A               	movwf	10
  5668  01A8  084F               	movf	_EUSART_ErrorHandler^(0+128),w
  5669  01A9  000A               	callw
  5670  01AA  3181               	pagesel	$
  5671                           
  5672                           ;mcc_generated_files/eusart.c: 242:     } else {
  5673  01AB  29AF               	goto	i1l238
  5674  01AC                     i1l2995:	
  5675                           
  5676                           ;mcc_generated_files/eusart.c: 243:         EUSART_RxDataHandler();
  5677  01AC  3182  220B  3181   	fcall	_EUSART_RxDataHandler
  5678  01AF                     i1l238:	
  5679  01AF  0008               	return
  5680  01B0                     __end_of_EUSART_Receive_ISR:	
  5681                           
  5682                           	psect	text22
  5683  02AF                     __ptext22:	
  5684 ;; *************** function _EUSART_DefaultOverrunErrorHandler *****************
  5685 ;; Defined at:
  5686 ;;		line 261 in file "mcc_generated_files/eusart.c"
  5687 ;; Parameters:    Size  Location     Type
  5688 ;;		None
  5689 ;; Auto vars:     Size  Location     Type
  5690 ;;		None
  5691 ;; Return value:  Size  Location     Type
  5692 ;;                  1    wreg      void 
  5693 ;; Registers used:
  5694 ;;		None
  5695 ;; Tracked objects:
  5696 ;;		On entry : 0/0
  5697 ;;		On exit  : 0/0
  5698 ;;		Unchanged: 0/0
  5699 ;; Data sizes:     COMMON   BANK0   BANK1   BANK2   BANK3   BANK4   BANK5   BANK6   BANK7   BANK8   BANK9  BANK10  BANK1
      +1  BANK12  BANK13  BANK14  BANK15  BANK16  BANK17  BANK18  BANK19  BANK20  BANK21  BANK22  BANK23  BANK24  BANK25
  5700 ;;      Params:         0       0       0       0       0       0       0       0       0       0       0       0       
      +0       0       0       0       0       0       0       0       0       0       0       0       0       0       0
  5701 ;;      Locals:         0       0       0       0       0       0       0       0       0       0       0       0       
      +0       0       0       0       0       0       0       0       0       0       0       0       0       0       0
  5702 ;;      Temps:          0       0       0       0       0       0       0       0       0       0       0       0       
      +0       0       0       0       0       0       0       0       0       0       0       0       0       0       0
  5703 ;;      Totals:         0       0       0       0       0       0       0       0       0       0       0       0       
      +0       0       0       0       0       0       0       0       0       0       0       0       0       0       0
  5704 ;;Total ram usage:        0 bytes
  5705 ;; Hardware stack levels used:    1
  5706 ;; This function calls:
  5707 ;;		Nothing
  5708 ;; This function is called by:
  5709 ;;		_EUSART_Initialize
  5710 ;;		_EUSART_Receive_ISR
  5711 ;; This function uses a non-reentrant model
  5712 ;;
  5713                           
  5714                           
  5715                           ;psect for function _EUSART_DefaultOverrunErrorHandler
  5716  02AF                     _EUSART_DefaultOverrunErrorHandler:	
  5717  02AF                     i1l2831:	
  5718                           ;incstack = 0
  5719                           ; Regs used in _EUSART_DefaultOverrunErrorHandler: []
  5720                           
  5721                           
  5722                           ;mcc_generated_files/eusart.c: 264:     RC1STAbits.CREN = 0;
  5723  02AF  0023               	movlb	3	; select bank3
  5724  02B0  121D               	bcf	29,4	;volatile
  5725                           
  5726                           ;mcc_generated_files/eusart.c: 265:     RC1STAbits.CREN = 1;
  5727  02B1  161D               	bsf	29,4	;volatile
  5728  02B2                     i1l248:	
  5729  02B2  0008               	return
  5730  02B3                     __end_of_EUSART_DefaultOverrunErrorHandler:	
  5731                           
  5732                           	psect	text23
  5733  02BA                     __ptext23:	
  5734 ;; *************** function _EUSART_DefaultFramingErrorHandler *****************
  5735 ;; Defined at:
  5736 ;;		line 259 in file "mcc_generated_files/eusart.c"
  5737 ;; Parameters:    Size  Location     Type
  5738 ;;		None
  5739 ;; Auto vars:     Size  Location     Type
  5740 ;;		None
  5741 ;; Return value:  Size  Location     Type
  5742 ;;                  1    wreg      void 
  5743 ;; Registers used:
  5744 ;;		None
  5745 ;; Tracked objects:
  5746 ;;		On entry : 0/0
  5747 ;;		On exit  : 0/0
  5748 ;;		Unchanged: 0/0
  5749 ;; Data sizes:     COMMON   BANK0   BANK1   BANK2   BANK3   BANK4   BANK5   BANK6   BANK7   BANK8   BANK9  BANK10  BANK1
      +1  BANK12  BANK13  BANK14  BANK15  BANK16  BANK17  BANK18  BANK19  BANK20  BANK21  BANK22  BANK23  BANK24  BANK25
  5750 ;;      Params:         0       0       0       0       0       0       0       0       0       0       0       0       
      +0       0       0       0       0       0       0       0       0       0       0       0       0       0       0
  5751 ;;      Locals:         0       0       0       0       0       0       0       0       0       0       0       0       
      +0       0       0       0       0       0       0       0       0       0       0       0       0       0       0
  5752 ;;      Temps:          0       0       0       0       0       0       0       0       0       0       0       0       
      +0       0       0       0       0       0       0       0       0       0       0       0       0       0       0
  5753 ;;      Totals:         0       0       0       0       0       0       0       0       0       0       0       0       
      +0       0       0       0       0       0       0       0       0       0       0       0       0       0       0
  5754 ;;Total ram usage:        0 bytes
  5755 ;; Hardware stack levels used:    1
  5756 ;; This function calls:
  5757 ;;		Nothing
  5758 ;; This function is called by:
  5759 ;;		_EUSART_Initialize
  5760 ;;		_EUSART_Receive_ISR
  5761 ;; This function uses a non-reentrant model
  5762 ;;
  5763                           
  5764                           
  5765                           ;psect for function _EUSART_DefaultFramingErrorHandler
  5766  02BA                     _EUSART_DefaultFramingErrorHandler:	
  5767  02BA                     i1l245:	
  5768                           ;incstack = 0
  5769                           ; Regs used in _EUSART_DefaultFramingErrorHandler: []
  5770                           
  5771  02BA  0008               	return
  5772  02BB                     __end_of_EUSART_DefaultFramingErrorHandler:	
  5773                           
  5774                           	psect	text24
  5775  02B3                     __ptext24:	
  5776 ;; *************** function _EUSART_DefaultErrorHandler *****************
  5777 ;; Defined at:
  5778 ;;		line 269 in file "mcc_generated_files/eusart.c"
  5779 ;; Parameters:    Size  Location     Type
  5780 ;;		None
  5781 ;; Auto vars:     Size  Location     Type
  5782 ;;		None
  5783 ;; Return value:  Size  Location     Type
  5784 ;;                  1    wreg      void 
  5785 ;; Registers used:
  5786 ;;		wreg, fsr1l, fsr1h, status,2, status,0, pclath, cstack
  5787 ;; Tracked objects:
  5788 ;;		On entry : 0/0
  5789 ;;		On exit  : 0/0
  5790 ;;		Unchanged: 0/0
  5791 ;; Data sizes:     COMMON   BANK0   BANK1   BANK2   BANK3   BANK4   BANK5   BANK6   BANK7   BANK8   BANK9  BANK10  BANK1
      +1  BANK12  BANK13  BANK14  BANK15  BANK16  BANK17  BANK18  BANK19  BANK20  BANK21  BANK22  BANK23  BANK24  BANK25
  5792 ;;      Params:         0       0       0       0       0       0       0       0       0       0       0       0       
      +0       0       0       0       0       0       0       0       0       0       0       0       0       0       0
  5793 ;;      Locals:         0       0       0       0       0       0       0       0       0       0       0       0       
      +0       0       0       0       0       0       0       0       0       0       0       0       0       0       0
  5794 ;;      Temps:          0       0       0       0       0       0       0       0       0       0       0       0       
      +0       0       0       0       0       0       0       0       0       0       0       0       0       0       0
  5795 ;;      Totals:         0       0       0       0       0       0       0       0       0       0       0       0       
      +0       0       0       0       0       0       0       0       0       0       0       0       0       0       0
  5796 ;;Total ram usage:        0 bytes
  5797 ;; Hardware stack levels used:    1
  5798 ;; Hardware stack levels required when called:    1
  5799 ;; This function calls:
  5800 ;;		_EUSART_RxDataHandler
  5801 ;; This function is called by:
  5802 ;;		_EUSART_Initialize
  5803 ;;		_EUSART_Receive_ISR
  5804 ;; This function uses a non-reentrant model
  5805 ;;
  5806                           
  5807                           
  5808                           ;psect for function _EUSART_DefaultErrorHandler
  5809  02B3                     _EUSART_DefaultErrorHandler:	
  5810  02B3                     i1l2833:	
  5811                           ;incstack = 0
  5812                           ; Regs used in _EUSART_DefaultErrorHandler: [wreg+fsr1l+fsr1h+status,2+status,0+pclath+c
      +                          stack]
  5813                           
  5814                           
  5815                           ;mcc_generated_files/eusart.c: 270:     EUSART_RxDataHandler();
  5816  02B3  3182  220B  3182   	fcall	_EUSART_RxDataHandler
  5817  02B6                     i1l251:	
  5818  02B6  0008               	return
  5819  02B7                     __end_of_EUSART_DefaultErrorHandler:	
  5820                           
  5821                           	psect	text25
  5822  020B                     __ptext25:	
  5823 ;; *************** function _EUSART_RxDataHandler *****************
  5824 ;; Defined at:
  5825 ;;		line 249 in file "mcc_generated_files/eusart.c"
  5826 ;; Parameters:    Size  Location     Type
  5827 ;;		None
  5828 ;; Auto vars:     Size  Location     Type
  5829 ;;		None
  5830 ;; Return value:  Size  Location     Type
  5831 ;;                  1    wreg      void 
  5832 ;; Registers used:
  5833 ;;		wreg, fsr1l, fsr1h, status,2, status,0
  5834 ;; Tracked objects:
  5835 ;;		On entry : 0/0
  5836 ;;		On exit  : 0/0
  5837 ;;		Unchanged: 0/0
  5838 ;; Data sizes:     COMMON   BANK0   BANK1   BANK2   BANK3   BANK4   BANK5   BANK6   BANK7   BANK8   BANK9  BANK10  BANK1
      +1  BANK12  BANK13  BANK14  BANK15  BANK16  BANK17  BANK18  BANK19  BANK20  BANK21  BANK22  BANK23  BANK24  BANK25
  5839 ;;      Params:         0       0       0       0       0       0       0       0       0       0       0       0       
      +0       0       0       0       0       0       0       0       0       0       0       0       0       0       0
  5840 ;;      Locals:         0       0       0       0       0       0       0       0       0       0       0       0       
      +0       0       0       0       0       0       0       0       0       0       0       0       0       0       0
  5841 ;;      Temps:          1       0       0       0       0       0       0       0       0       0       0       0       
      +0       0       0       0       0       0       0       0       0       0       0       0       0       0       0
  5842 ;;      Totals:         1       0       0       0       0       0       0       0       0       0       0       0       
      +0       0       0       0       0       0       0       0       0       0       0       0       0       0       0
  5843 ;;Total ram usage:        1 bytes
  5844 ;; Hardware stack levels used:    1
  5845 ;; This function calls:
  5846 ;;		Nothing
  5847 ;; This function is called by:
  5848 ;;		_EUSART_Receive_ISR
  5849 ;;		_EUSART_DefaultErrorHandler
  5850 ;; This function uses a non-reentrant model
  5851 ;;
  5852                           
  5853                           
  5854                           ;psect for function _EUSART_RxDataHandler
  5855  020B                     _EUSART_RxDataHandler:	
  5856  020B                     i1l2693:	
  5857                           ;incstack = 0
  5858                           ; Regs used in _EUSART_RxDataHandler: [wreg+fsr1l+fsr1h+status,2+status,0]
  5859                           
  5860                           
  5861                           ;mcc_generated_files/eusart.c: 251:     eusartRxBuffer[eusartRxHead++] = RC1REG;
  5862  020B  0023               	movlb	3	; select bank3
  5863  020C  0819               	movf	25,w	;volatile
  5864  020D  00F9               	movwf	??_EUSART_RxDataHandler
  5865  020E  0876               	movf	_eusartRxHead,w
  5866  020F  3EB7               	addlw	(low (_eusartRxBuffer| 0))& (0+255)
  5867  0210  0086               	movwf	6
  5868  0211  0187               	clrf	7
  5869  0212  0879               	movf	??_EUSART_RxDataHandler,w
  5870  0213  0081               	movwf	1
  5871  0214                     i1l2695:	
  5872  0214  3001               	movlw	1
  5873  0215  00F9               	movwf	??_EUSART_RxDataHandler
  5874  0216  0879               	movf	??_EUSART_RxDataHandler,w
  5875  0217  07F6               	addwf	_eusartRxHead,f	;volatile
  5876  0218                     i1l2697:	
  5877                           
  5878                           ;mcc_generated_files/eusart.c: 252:     if(sizeof(eusartRxBuffer) <= eusartRxHead)
  5879  0218  3008               	movlw	8
  5880  0219  0276               	subwf	_eusartRxHead,w	;volatile
  5881  021A  1C03               	skipc
  5882  021B  2A1D               	goto	u66_21
  5883  021C  2A1E               	goto	u66_20
  5884  021D                     u66_21:	
  5885  021D  2A1F               	goto	i1l2701
  5886  021E                     u66_20:	
  5887  021E                     i1l2699:	
  5888                           
  5889                           ;mcc_generated_files/eusart.c: 253:     {;mcc_generated_files/eusart.c: 254:         eus
      +                          artRxHead = 0;
  5890  021E  01F6               	clrf	_eusartRxHead	;volatile
  5891  021F                     i1l2701:	
  5892                           
  5893                           ;mcc_generated_files/eusart.c: 256:     eusartRxCount++;
  5894  021F  3001               	movlw	1
  5895  0220  00F9               	movwf	??_EUSART_RxDataHandler
  5896  0221  0879               	movf	??_EUSART_RxDataHandler,w
  5897  0222  07F4               	addwf	_eusartRxCount,f	;volatile
  5898  0223                     i1l242:	
  5899  0223  0008               	return
  5900  0224                     __end_of_EUSART_RxDataHandler:	
  5901  007E                     btemp	set	126	;btemp
  5902  007E                     int$flags	set	126
  5903  007E                     wtemp0	set	126


Data Sizes:
    Strings     0
    Constant    32
    Data        27
    BSS         66
    Persistent  51
    Stack       0

Auto Spaces:
    Space          Size  Autos    Used
    COMMON           14      4      13
    BANK0            80     30      80
    BANK1            80      0      53
    BANK2            80      0       0
    BANK3            80      0       0
    BANK4            80      0       0
    BANK5            80      0       0
    BANK6            80      0       0
    BANK7            80      0       0
    BANK8            80      0       0
    BANK9            80      0       0
    BANK10           80      0       0
    BANK11           80      0       0
    BANK12           80      0       0
    BANK13           80      0       0
    BANK14           80      0       0
    BANK15           80      0       0
    BANK16           80      0       0
    BANK17           80      0       0
    BANK18           80      0       0
    BANK19           80      0       0
    BANK20           80      0       0
    BANK21           80      0       0
    BANK22           80      0       0
    BANK23           80      0       0
    BANK24           80      0       0
    BANK25           32      0       0

Pointer List with Targets:

    I2C1_Read1ByteRegister@returnValue.data	PTR unsigned char  size(1) Largest target is 0

    I2C1_Read2ByteRegister@returnValue.data	PTR unsigned char  size(1) Largest target is 0

    I2C1_Write1ByteRegister@data.data	PTR unsigned char  size(1) Largest target is 0

    I2C1_Write2ByteRegister@data.data	PTR unsigned char  size(1) Largest target is 0

    I2C1_DO_TX$1963$0	PTR void  size(1) Largest target is 4
		 -> I2C1_ReadDataBlock@bufferBlock(COMMON[3]), I2C1_Write2ByteRegister@data(COMMON[2]), I2C1_Write1ByteRegister@data(COMMON[1]), I2C1_Read2ByteRegister@returnValue(COMMON[2]), 
		 -> NULL(NULL[0]), I2C1_Read1ByteRegister@returnValue(COMMON[1]), 

    cb$0	PTR void  size(1) Largest target is 4
		 -> I2C1_ReadDataBlock@bufferBlock(COMMON[3]), I2C1_Write2ByteRegister@data(COMMON[2]), I2C1_Write1ByteRegister@data(COMMON[1]), I2C1_Read2ByteRegister@returnValue(COMMON[2]), 
		 -> NULL(NULL[0]), I2C1_Read1ByteRegister@returnValue(COMMON[1]), 

    Absolute function$0	PTR void  size(1) Largest target is 4
		 -> I2C1_ReadDataBlock@bufferBlock(COMMON[3]), I2C1_Write2ByteRegister@data(COMMON[2]), I2C1_Write1ByteRegister@data(COMMON[1]), I2C1_Read2ByteRegister@returnValue(COMMON[2]), 
		 -> NULL(NULL[0]), I2C1_Read1ByteRegister@returnValue(COMMON[1]), 

    cb$0	PTR void  size(1) Largest target is 4
		 -> I2C1_ReadDataBlock@bufferBlock(COMMON[3]), I2C1_Write2ByteRegister@data(COMMON[2]), I2C1_Write1ByteRegister@data(COMMON[1]), I2C1_Read2ByteRegister@returnValue(COMMON[2]), 
		 -> NULL(NULL[0]), I2C1_Read1ByteRegister@returnValue(COMMON[1]), 

    S701$0$0	PTR void  size(1) Largest target is 4
		 -> I2C1_ReadDataBlock@bufferBlock(COMMON[3]), I2C1_Write2ByteRegister@data(COMMON[2]), I2C1_Write1ByteRegister@data(COMMON[1]), I2C1_Read2ByteRegister@returnValue(COMMON[2]), 
		 -> NULL(NULL[0]), I2C1_Read1ByteRegister@returnValue(COMMON[1]), 

    sendPWM@data	PTR unsigned char  size(1) Largest target is 23
		 -> main@dummy_data(BANK0[23]), 

    S701$data_ptr	PTR unsigned char  size(1) Largest target is 4
		 -> I2C1_ReadDataBlock@reg(COMMON[1]), I2C1_ReadDataBlock@bufferBlock(COMMON[3]), I2C1_Write2ByteRegister@reg(COMMON[1]), I2C1_Write2ByteRegister@data(COMMON[2]), 
		 -> I2C1_Write1ByteRegister@reg(COMMON[1]), I2C1_Write1ByteRegister@data(COMMON[1]), I2C1_Read2ByteRegister@reg(COMMON[1]), I2C1_Read2ByteRegister@returnValue(COMMON[2]), 
		 -> NULL(NULL[0]), I2C1_Read1ByteRegister@reg(COMMON[1]), I2C1_Read1ByteRegister@returnValue(COMMON[1]), 

    I2C1_Status.data_ptr	PTR unsigned char  size(1) Largest target is 4
		 -> I2C1_ReadDataBlock@reg(COMMON[1]), I2C1_ReadDataBlock@bufferBlock(COMMON[3]), I2C1_Write2ByteRegister@reg(COMMON[1]), I2C1_Write2ByteRegister@data(COMMON[2]), 
		 -> I2C1_Write1ByteRegister@reg(COMMON[1]), I2C1_Write1ByteRegister@data(COMMON[1]), I2C1_Read2ByteRegister@reg(COMMON[1]), I2C1_Read2ByteRegister@returnValue(COMMON[2]), 
		 -> NULL(NULL[0]), I2C1_Read1ByteRegister@reg(COMMON[1]), I2C1_Read1ByteRegister@returnValue(COMMON[1]), 

    S701$callbackPayload	PTR void [6] size(1) Largest target is 4
		 -> I2C1_ReadDataBlock@bufferBlock(COMMON[3]), I2C1_Write2ByteRegister@data(COMMON[2]), I2C1_Write1ByteRegister@data(COMMON[1]), I2C1_Read2ByteRegister@returnValue(COMMON[2]), 
		 -> NULL(NULL[0]), I2C1_Read1ByteRegister@returnValue(COMMON[1]), 

    I2C1_Status.callbackPayload	PTR void [6] size(1) Largest target is 4
		 -> I2C1_ReadDataBlock@bufferBlock(COMMON[3]), I2C1_Write2ByteRegister@data(COMMON[2]), I2C1_Write1ByteRegister@data(COMMON[1]), I2C1_Read2ByteRegister@returnValue(COMMON[2]), 
		 -> NULL(NULL[0]), I2C1_Read1ByteRegister@returnValue(COMMON[1]), 

    S701$callbackTable	PTR FTN(PTR void ,)enum E358[6] size(2) Largest target is 1
		 -> I2C1_CallbackReturnReset(), I2C1_CallbackReturnStop(), Absolute function(), rdBlkRegCompleteHandler(), 
		 -> wr2RegCompleteHandler(), wr1RegCompleteHandler(), rd2RegCompleteHandler(), rd1RegCompleteHandler(), 

    I2C1_Status.callbackTable	PTR FTN(PTR void ,)enum E358[6] size(2) Largest target is 1
		 -> I2C1_CallbackReturnReset(), I2C1_CallbackReturnStop(), Absolute function(), rdBlkRegCompleteHandler(), 
		 -> wr2RegCompleteHandler(), wr1RegCompleteHandler(), rd2RegCompleteHandler(), rd1RegCompleteHandler(), 

    fsmStateTable	const PTR FTN()enum E7150[16] size(2) Largest target is 1
		 -> I2C1_DO_ADDRESS_NACK(), I2C1_DO_RESET(), I2C1_DO_RX_NACK_RESTART(), I2C1_DO_RX_NACK_STOP(), 
		 -> I2C1_DO_RX_ACK(), I2C1_DO_SEND_STOP(), I2C1_DO_SEND_RESTART(), I2C1_DO_SEND_RESTART_WRITE(), 
		 -> I2C1_DO_SEND_RESTART_READ(), I2C1_DO_TX_EMPTY(), I2C1_DO_RCEN(), I2C1_DO_RX(), 
		 -> I2C1_DO_TX(), I2C1_DO_SEND_ADR_WRITE(), I2C1_DO_SEND_ADR_READ(), I2C1_DO_IDLE(), 

    EUSART_SetRxInterruptHandler@interruptHandler	PTR FTN()void  size(2) Largest target is 1
		 -> EUSART_Receive_ISR(), 

    EUSART_RxDefaultInterruptHandler	PTR FTN()void  size(2) Largest target is 1
		 -> Absolute function(), EUSART_Receive_ISR(), 

    EUSART_SetTxInterruptHandler@interruptHandler	PTR FTN()void  size(2) Largest target is 1
		 -> EUSART_Transmit_ISR(), 

    EUSART_TxDefaultInterruptHandler	PTR FTN()void  size(2) Largest target is 1
		 -> Absolute function(), EUSART_Transmit_ISR(), 

    EUSART_SetErrorHandler@interruptHandler	PTR FTN()void  size(2) Largest target is 1
		 -> EUSART_DefaultErrorHandler(), 

    EUSART_SetOverrunErrorHandler@interruptHandler	PTR FTN()void  size(2) Largest target is 1
		 -> EUSART_DefaultOverrunErrorHandler(), 

    EUSART_SetFramingErrorHandler@interruptHandler	PTR FTN()void  size(2) Largest target is 1
		 -> EUSART_DefaultFramingErrorHandler(), 

    EUSART_ErrorHandler	PTR FTN()void  size(2) Largest target is 1
		 -> Absolute function(), EUSART_DefaultErrorHandler(), 

    EUSART_OverrunErrorHandler	PTR FTN()void  size(2) Largest target is 1
		 -> Absolute function(), EUSART_DefaultOverrunErrorHandler(), 

    EUSART_FramingErrorHandler	PTR FTN()void  size(2) Largest target is 1
		 -> Absolute function(), EUSART_DefaultFramingErrorHandler(), 

    rdBlkRegCompleteHandler@ptr.data	PTR unsigned char  size(1) Largest target is 0

    S94$data	PTR unsigned char  size(1) Largest target is 0

    bufferBlock.data	PTR unsigned char  size(1) Largest target is 0


Critical Paths under _main in COMMON

    _main->_sendPWM
    _SYSTEM_Initialize->_EUSART_Initialize
    _EUSART_Initialize->_EUSART_SetErrorHandler
    _EUSART_Initialize->_EUSART_SetFramingErrorHandler
    _EUSART_Initialize->_EUSART_SetOverrunErrorHandler
    _EUSART_Initialize->_EUSART_SetRxInterruptHandler
    _EUSART_Initialize->_EUSART_SetTxInterruptHandler

Critical Paths under _INTERRUPT_InterruptManager in COMMON

    _INTERRUPT_InterruptManager->_EUSART_Transmit_ISR
    _EUSART_Receive_ISR->_EUSART_RxDataHandler
    _EUSART_DefaultErrorHandler->_EUSART_RxDataHandler

Critical Paths under _main in BANK0

    None.

Critical Paths under _INTERRUPT_InterruptManager in BANK0

    None.

Critical Paths under _main in BANK1

    None.

Critical Paths under _INTERRUPT_InterruptManager in BANK1

    None.

Critical Paths under _main in BANK2

    None.

Critical Paths under _INTERRUPT_InterruptManager in BANK2

    None.

Critical Paths under _main in BANK3

    None.

Critical Paths under _INTERRUPT_InterruptManager in BANK3

    None.

Critical Paths under _main in BANK4

    None.

Critical Paths under _INTERRUPT_InterruptManager in BANK4

    None.

Critical Paths under _main in BANK5

    None.

Critical Paths under _INTERRUPT_InterruptManager in BANK5

    None.

Critical Paths under _main in BANK6

    None.

Critical Paths under _INTERRUPT_InterruptManager in BANK6

    None.

Critical Paths under _main in BANK7

    None.

Critical Paths under _INTERRUPT_InterruptManager in BANK7

    None.

Critical Paths under _main in BANK8

    None.

Critical Paths under _INTERRUPT_InterruptManager in BANK8

    None.

Critical Paths under _main in BANK9

    None.

Critical Paths under _INTERRUPT_InterruptManager in BANK9

    None.

Critical Paths under _main in BANK10

    None.

Critical Paths under _INTERRUPT_InterruptManager in BANK10

    None.

Critical Paths under _main in BANK11

    None.

Critical Paths under _INTERRUPT_InterruptManager in BANK11

    None.

Critical Paths under _main in BANK12

    None.

Critical Paths under _INTERRUPT_InterruptManager in BANK12

    None.

Critical Paths under _main in BANK13

    None.

Critical Paths under _INTERRUPT_InterruptManager in BANK13

    None.

Critical Paths under _main in BANK14

    None.

Critical Paths under _INTERRUPT_InterruptManager in BANK14

    None.

Critical Paths under _main in BANK15

    None.

Critical Paths under _INTERRUPT_InterruptManager in BANK15

    None.

Critical Paths under _main in BANK16

    None.

Critical Paths under _INTERRUPT_InterruptManager in BANK16

    None.

Critical Paths under _main in BANK17

    None.

Critical Paths under _INTERRUPT_InterruptManager in BANK17

    None.

Critical Paths under _main in BANK18

    None.

Critical Paths under _INTERRUPT_InterruptManager in BANK18

    None.

Critical Paths under _main in BANK19

    None.

Critical Paths under _INTERRUPT_InterruptManager in BANK19

    None.

Critical Paths under _main in BANK20

    None.

Critical Paths under _INTERRUPT_InterruptManager in BANK20

    None.

Critical Paths under _main in BANK21

    None.

Critical Paths under _INTERRUPT_InterruptManager in BANK21

    None.

Critical Paths under _main in BANK22

    None.

Critical Paths under _INTERRUPT_InterruptManager in BANK22

    None.

Critical Paths under _main in BANK23

    None.

Critical Paths under _INTERRUPT_InterruptManager in BANK23

    None.

Critical Paths under _main in BANK24

    None.

Critical Paths under _INTERRUPT_InterruptManager in BANK24

    None.

Critical Paths under _main in BANK25

    None.

Critical Paths under _INTERRUPT_InterruptManager in BANK25

    None.

Call Graph Tables:

 ---------------------------------------------------------------------------------
 (Depth) Function   	        Calls       Base Space   Used Autos Params    Refs
 ---------------------------------------------------------------------------------
 (0) _main                                                30    30      0     916
                                              0 BANK0     30    30      0
                  _SYSTEM_Initialize
                            _sendPWM
                            _setZero
 ---------------------------------------------------------------------------------
 (1) _setZero                                              0     0      0       0
 ---------------------------------------------------------------------------------
 (1) _sendPWM                                              3     3      0     278
                                              1 COMMON     3     3      0
                            _setHigh
                             _setLow
 ---------------------------------------------------------------------------------
 (2) _setLow                                               0     0      0       0
 ---------------------------------------------------------------------------------
 (2) _setHigh                                              0     0      0       0
 ---------------------------------------------------------------------------------
 (1) _SYSTEM_Initialize                                    0     0      0     490
                  _EUSART_Initialize
                    _I2C1_Initialize
              _OSCILLATOR_Initialize
             _PIN_MANAGER_Initialize
                     _PMD_Initialize
                    _PWM5_Initialize
                    _TMR2_Initialize
                     _WDT_Initialize
 ---------------------------------------------------------------------------------
 (2) _WDT_Initialize                                       0     0      0       0
 ---------------------------------------------------------------------------------
 (2) _TMR2_Initialize                                      0     0      0       0
 ---------------------------------------------------------------------------------
 (2) _PWM5_Initialize                                      0     0      0       0
 ---------------------------------------------------------------------------------
 (2) _PMD_Initialize                                       0     0      0       0
 ---------------------------------------------------------------------------------
 (2) _PIN_MANAGER_Initialize                               0     0      0       0
 ---------------------------------------------------------------------------------
 (2) _OSCILLATOR_Initialize                                0     0      0       0
 ---------------------------------------------------------------------------------
 (2) _I2C1_Initialize                                      0     0      0       0
 ---------------------------------------------------------------------------------
 (2) _EUSART_Initialize                                    1     1      0     490
                                              3 COMMON     1     1      0
             _EUSART_SetErrorHandler
      _EUSART_SetFramingErrorHandler
      _EUSART_SetOverrunErrorHandler
       _EUSART_SetRxInterruptHandler
       _EUSART_SetTxInterruptHandler
 ---------------------------------------------------------------------------------
 (3) _EUSART_SetTxInterruptHandler                         2     0      2      98
                                              1 COMMON     2     0      2
 ---------------------------------------------------------------------------------
 (3) _EUSART_SetRxInterruptHandler                         2     0      2      98
                                              1 COMMON     2     0      2
 ---------------------------------------------------------------------------------
 (3) _EUSART_SetOverrunErrorHandler                        2     0      2      98
                                              1 COMMON     2     0      2
 ---------------------------------------------------------------------------------
 (3) _EUSART_SetFramingErrorHandler                        2     0      2      98
                                              1 COMMON     2     0      2
 ---------------------------------------------------------------------------------
 (3) _EUSART_SetErrorHandler                               2     0      2      98
                                              1 COMMON     2     0      2
 ---------------------------------------------------------------------------------
 Estimated maximum stack depth 3
 ---------------------------------------------------------------------------------
 (Depth) Function   	        Calls       Base Space   Used Autos Params    Refs
 ---------------------------------------------------------------------------------
 (4) _INTERRUPT_InterruptManager                           0     0      0       0
                   Absolute function *
                 _EUSART_Receive_ISR *
                _EUSART_Transmit_ISR *
 ---------------------------------------------------------------------------------
 (5) _EUSART_Transmit_ISR                                  1     1      0       0
                                              0 COMMON     1     1      0
 ---------------------------------------------------------------------------------
 (5) _EUSART_Receive_ISR                                   0     0      0       0
                   Absolute function *
         _EUSART_DefaultErrorHandler *
  _EUSART_DefaultFramingErrorHandler *
  _EUSART_DefaultOverrunErrorHandler *
               _EUSART_RxDataHandler
 ---------------------------------------------------------------------------------
 (6) _EUSART_DefaultOverrunErrorHandler                    0     0      0       0
 ---------------------------------------------------------------------------------
 (6) _EUSART_DefaultFramingErrorHandler                    0     0      0       0
 ---------------------------------------------------------------------------------
 (6) _EUSART_DefaultErrorHandler                           0     0      0       0
               _EUSART_RxDataHandler
 ---------------------------------------------------------------------------------
 (6) _EUSART_RxDataHandler                                 1     1      0       0
                                              0 COMMON     1     1      0
 ---------------------------------------------------------------------------------
 (6) Absolute function(Fake)                               1     0      1       0
 ---------------------------------------------------------------------------------
 Estimated maximum stack depth 6
 ---------------------------------------------------------------------------------

 Call Graph Graphs:

 _main (ROOT)
   _SYSTEM_Initialize
     _EUSART_Initialize
       _EUSART_SetErrorHandler
       _EUSART_SetFramingErrorHandler
       _EUSART_SetOverrunErrorHandler
       _EUSART_SetRxInterruptHandler
       _EUSART_SetTxInterruptHandler
     _I2C1_Initialize
     _OSCILLATOR_Initialize
     _PIN_MANAGER_Initialize
     _PMD_Initialize
     _PWM5_Initialize
     _TMR2_Initialize
     _WDT_Initialize
   _sendPWM
     _setHigh
     _setLow
   _setZero

 _INTERRUPT_InterruptManager (ROOT)
   Absolute function(Fake) *
   _EUSART_Receive_ISR *
     Absolute function(Fake) *
     _EUSART_DefaultErrorHandler *
       _EUSART_RxDataHandler
     _EUSART_DefaultFramingErrorHandler *
     _EUSART_DefaultOverrunErrorHandler *
     _EUSART_RxDataHandler *
   _EUSART_Transmit_ISR *

 Address spaces:
Name               Size   Autos  Total    Cost      Usage
BIGRAM             7F0      0       0       0        0.0%
EEDATA             100      0       0       0        0.0%
NULL                 0      0       0       0        0.0%
CODE                 0      0       0       0        0.0%
BITCOMMON            E      0       0       1        0.0%
BITSFR0              0      0       0       1        0.0%
SFR0                 0      0       0       1        0.0%
COMMON               E      4       D       2       92.9%
BITSFR1              0      0       0       2        0.0%
SFR1                 0      0       0       2        0.0%
BITSFR2              0      0       0       3        0.0%
SFR2                 0      0       0       3        0.0%
STACK                0      0       0       3        0.0%
BITBANK0            50      0       0       4        0.0%
BITSFR3              0      0       0       4        0.0%
SFR3                 0      0       0       4        0.0%
BANK0               50     1E      50       5      100.0%
BITSFR4              0      0       0       5        0.0%
SFR4                 0      0       0       5        0.0%
BITBANK1            50      0       0       6        0.0%
BITSFR5              0      0       0       6        0.0%
SFR5                 0      0       0       6        0.0%
BANK1               50      0      35       7       66.3%
BITSFR6              0      0       0       7        0.0%
SFR6                 0      0       0       7        0.0%
BITBANK2            50      0       0       8        0.0%
BITSFR7              0      0       0       8        0.0%
SFR7                 0      0       0       8        0.0%
BANK2               50      0       0       9        0.0%
BITSFR8              0      0       0       9        0.0%
SFR8                 0      0       0       9        0.0%
BITBANK3            50      0       0      10        0.0%
BITSFR9              0      0       0      10        0.0%
SFR9                 0      0       0      10        0.0%
BANK3               50      0       0      11        0.0%
BITSFR10             0      0       0      11        0.0%
SFR10                0      0       0      11        0.0%
BITBANK4            50      0       0      12        0.0%
BITSFR11             0      0       0      12        0.0%
SFR11                0      0       0      12        0.0%
BANK4               50      0       0      13        0.0%
BITSFR12             0      0       0      13        0.0%
SFR12                0      0       0      13        0.0%
BITSFR13             0      0       0      14        0.0%
SFR13                0      0       0      14        0.0%
ABS                  0      0      92      14        0.0%
BITBANK5            50      0       0      15        0.0%
BITSFR14             0      0       0      15        0.0%
SFR14                0      0       0      15        0.0%
BANK5               50      0       0      16        0.0%
BITSFR15             0      0       0      16        0.0%
SFR15                0      0       0      16        0.0%
BITBANK6            50      0       0      17        0.0%
BITSFR16             0      0       0      17        0.0%
SFR16                0      0       0      17        0.0%
BANK6               50      0       0      18        0.0%
BITSFR17             0      0       0      18        0.0%
SFR17                0      0       0      18        0.0%
BITBANK7            50      0       0      19        0.0%
BITSFR18             0      0       0      19        0.0%
SFR18                0      0       0      19        0.0%
BANK7               50      0       0      20        0.0%
BITSFR19             0      0       0      20        0.0%
SFR19                0      0       0      20        0.0%
BITBANK8            50      0       0      21        0.0%
BITSFR20             0      0       0      21        0.0%
SFR20                0      0       0      21        0.0%
BANK8               50      0       0      22        0.0%
BITSFR21             0      0       0      22        0.0%
SFR21                0      0       0      22        0.0%
BITBANK9            50      0       0      23        0.0%
BITSFR22             0      0       0      23        0.0%
SFR22                0      0       0      23        0.0%
BANK9               50      0       0      24        0.0%
BITSFR23             0      0       0      24        0.0%
SFR23                0      0       0      24        0.0%
BITBANK10           50      0       0      25        0.0%
BITSFR24             0      0       0      25        0.0%
SFR24                0      0       0      25        0.0%
BANK10              50      0       0      26        0.0%
BITSFR25             0      0       0      26        0.0%
SFR25                0      0       0      26        0.0%
BITBANK11           50      0       0      27        0.0%
BITSFR26             0      0       0      27        0.0%
SFR26                0      0       0      27        0.0%
BITSFR27             0      0       0      28        0.0%
SFR27                0      0       0      28        0.0%
DATA                 0      0      92      28        0.0%
BANK11              50      0       0      29        0.0%
BITSFR28             0      0       0      29        0.0%
SFR28                0      0       0      29        0.0%
BITBANK12           50      0       0      30        0.0%
BITSFR29             0      0       0      30        0.0%
SFR29                0      0       0      30        0.0%
BANK12              50      0       0      31        0.0%
BITSFR30             0      0       0      31        0.0%
SFR30                0      0       0      31        0.0%
BITBANK13           50      0       0      32        0.0%
BITSFR31             0      0       0      32        0.0%
SFR31                0      0       0      32        0.0%
BANK13              50      0       0      33        0.0%
BITBANK14           50      0       0      34        0.0%
BANK14              50      0       0      35        0.0%
BITBANK15           50      0       0      36        0.0%
BANK15              50      0       0      37        0.0%
BITBANK16           50      0       0      38        0.0%
BANK16              50      0       0      39        0.0%
BITBANK17           50      0       0      40        0.0%
BANK17              50      0       0      41        0.0%
BITBANK18           50      0       0      42        0.0%
BANK18              50      0       0      43        0.0%
BITBANK19           50      0       0      44        0.0%
BANK19              50      0       0      45        0.0%
BITBANK20           50      0       0      46        0.0%
BANK20              50      0       0      47        0.0%
BITBANK21           50      0       0      48        0.0%
BANK21              50      0       0      49        0.0%
BITBANK22           50      0       0      50        0.0%
BANK22              50      0       0      51        0.0%
BITBANK23           50      0       0      52        0.0%
BANK23              50      0       0      53        0.0%
BITBANK24           50      0       0      54        0.0%
BANK24              50      0       0      55        0.0%
BITBANK25           20      0       0      56        0.0%
BANK25              20      0       0      57        0.0%


Microchip Technology PIC Macro Assembler V2.10 build 88905656 
Symbol Table                                                                                   Mon Feb 10 17:24:47 2020

                ?_EUSART_SetRxInterruptHandler 007A                                    __CFG_CP$OFF 0000  
                                  __CFG_LVP$ON 0000                                            l113 0246  
                                          l260 02A6                                            l254 02A0  
                                          l430 0176                                            l263 028E  
                                          l191 013C                                            l257 029A  
                                          l266 0294                                            l362 020A  
                                          l371 027C                                            l365 0263  
                                          l279 0274                                            l368 02AE  
                                          l801 025A                                            l538 026C  
                                          l804 0250                                            l807 02B9  
                                          l817 00FC                                            l834 00A0  
                                          l838 00B8                                            _PR2 001E  
                                 __CFG_CPD$OFF 0000                                            u850 00D8  
                                          u851 00D7                                            u860 00F1  
                                          u844 00D2                                            u861 00F0  
                                          u845 00D1                         ??_EUSART_RxDataHandler 0079  
               ?_EUSART_SetFramingErrorHandler 007A                        __size_of_PMD_Initialize 0008  
                              _TMR2_Initialize 026D                                            wreg 0009  
                         _I2C1_DO_RX_NACK_STOP 0000                                    main@hdr_trl 0061  
                                         l3001 01F8                                           l3011 0207  
                                         l3003 01FB                                           l3005 01FE  
                                         l3021 00C9                                           l3013 02B7  
                                         l3007 0201                                           l3031 00DC  
                                         l3015 00BE                                           l3009 0204  
                                         l3041 00F4                                           l3033 00DF  
                                         l3017 00BE                                           l3035 00E7  
                                         l3027 00CA                                           l3019 00C1  
                                         l3037 00EB                                           l3029 00D8  
                                         l3039 00F1                                           l2801 00FF  
                                         l2811 0116                                           l2803 0106  
                                         l2821 012F                                           l2813 0118  
                                         l2805 010F                                           l2901 02AB  
                                         l3461 007A                                           l2823 0130  
                                         l2815 011A                                           l2807 0112  
                                         l2903 0251                                           l3471 0097  
                                         l3463 0082                                           l3455 0062  
                                         l2825 0131                                           l2817 0121  
                                         l2809 0114                                           l2841 0272  
                                         l2905 0247                                           l3481 00A5  
                                         l3473 0097                                           l3465 0083  
                                         l3457 006B                                           l2691 02A1  
                                         l2683 028F                                           l2827 0132  
                                         l2819 0128                                           l2851 026B  
                                         l2843 0275                                           l2835 026D  
                                         l3483 00A8                                           l3475 009A  
                                         l3467 0084                                           l3459 0071  
                                         l2685 0289                                           l2829 013A  
                                         l2845 0264                                           l2861 0148  
                                         l2853 013D                                           l2837 0270  
                                         l3485 00AD                                           l3469 0093  
                                         l2687 029B                                           l2847 0266  
                                         l2871 015C                                           l2863 014B  
                                         l2855 0141                                           l2839 0271  
                                         l3487 00B2                                           l3479 00A2  
                                         l2689 0295                                           l2849 0268  
                                         l2881 0168                                           l2873 015E  
                                         l2865 014D                                           l2857 0144  
                                         l2891 0173                                           l2883 016A  
                                         l2875 0161                                           l2867 0157  
                                         l2859 0146                                           l2795 023B  
                                         l2893 025B                                           l2885 016D  
                                         l2877 0163                                           l2869 015A  
                                         l2797 0242                                           l2799 00FD  
                                         l2895 025E                                           l2887 016F  
                                         l2879 0165                                           l2897 025F  
                                         l2889 0171                                           l2899 0262  
                                         l2997 01F2                                           l2999 01F5  
                                         _LATA 010C                                           _LATB 010D  
                                         _LATC 010E                                           u1540 008F  
                                         u1550 009F                                           u1551 009E  
                                         u1560 00B8                                           u1561 00B7  
                                         u1577 00C4                                           u1587 00E2  
                                         u1597 00F7                                           _PMD0 0911  
                                         _PMD1 0912                                           _PMD2 0913  
                                         _PMD3 0914                                           _PMD4 0915  
                                         _PMD5 0916                                           _TMR2 001D  
                                         _WPUA 020C                                           _WPUB 020D  
                                         _WPUC 020E                                   __CFG_WRT$OFF 0000  
                                __CFG_FCMEN$ON 0000                                           _main 0062  
                                         fsr0h 0005                                           fsr1h 0007  
                                         indf0 0000                                           fsr0l 0004  
                                         indf1 0001                                           fsr1l 0006  
                                         btemp 007E                                  __CFG_BOREN$ON 0000  
                                __CFG_BORV$LOW 0000                                           start 002C  
                              _PWM5_Initialize 023B                                  __CFG_CSWEN$ON 0000  
                                __CFG_MCLRE$ON 0000                 __size_of_OSCILLATOR_Initialize 0009  
                __end_of_OSCILLATOR_Initialize 0264                                          ?_main 0079  
                                __CFG_WDTE$OFF 0000                                          _T2CON 001F  
                               __CFG_DEBUG$OFF 0000                                          i1l231 01D1  
                                        i1l242 0223                                          i1l314 001A  
                                        i1l251 02B6                                          i1l315 002A  
                                        i1l228 01CF                                          i1l245 02BA  
                                        i1l238 01AF                                          i1l319 002A  
                                        i1l248 02B2                                          _OSCEN 091D  
                                        u80_20 01C8                                          u80_21 01C7  
                                        u81_20 0181                                          u81_21 0180  
                                        _TRISA 008C                                          _TRISB 008D  
                                        _TRISC 008E                                          u66_20 021E  
                                        u82_20 0191                                          u66_21 021D  
                                        u82_21 0190                                          u83_20 01A5  
                                        u83_21 01A4                                          u79_20 01B7  
                                        u79_21 01B6                                          _RXPPS 0E24  
                                        u99_20 000A                                          u99_21 0009  
                            ??_I2C1_Initialize 007A                                 _WDT_Initialize 02AB  
                                        _value 0072                                __end_of_sendPWM 00FD  
                                        main@i 0066                                          main@n 0065  
                              __end_of_setHigh 025B                                __end_of_setZero 02BA  
                                        pclath 000A                                          status 0003  
                                        wtemp0 007E                                  _fsmStateTable 01D2  
                              __initialization 002E                                   __end_of_main 00BD  
                      __end_of_TMR2_Initialize 0275                    ?_INTERRUPT_InterruptManager 0079  
               ??_EUSART_SetRxInterruptHandler 007C                                         ??_main 0049  
                       __end_of_WDT_Initialize 02AF      __end_of_EUSART_DefaultFramingErrorHandler 02BB  
   __size_of_EUSART_DefaultFramingErrorHandler 0001            ??_EUSART_DefaultFramingErrorHandler 0079  
           ?_EUSART_DefaultFramingErrorHandler 0079              _EUSART_DefaultFramingErrorHandler 02BA  
                   _EUSART_OverrunErrorHandler 00D1                                         _ANSELA 018C  
                                       _ANSELB 018D                                         _ANSELC 018E  
                           __CFG_RSTOSC$HFINT1 0000                                         _RC1REG 0199  
                                       _RC1STA 019D                                         u100_20 000F  
                                       u100_21 000E                                         _RB4PPS 0E9C  
                                       u101_20 0014                                         u101_21 0013  
                                       _RB5PPS 0E9D                                         u102_20 001F  
                                       u102_21 001E                                         u103_20 0024  
                                       u103_21 0023                                         _RB7PPS 0E9F  
                                       _ODCONA 028C                                         _ODCONB 028D  
                                       _RC6PPS 0EA6                                         _ODCONC 028E  
                                       i1l3141 0014                                         i1l3143 001F  
                                       i1l3135 0006                                         i1l3145 0024  
                                       i1l3137 000A                                         i1l3139 000F  
                                       i1l2701 021F                        __end_of_PWM5_Initialize 0247  
                                       i1l2831 02AF                                         i1l2833 02B3  
                                       i1l2693 020B                                         i1l2695 0214  
                                       i1l2697 0218                                         i1l2699 021E  
                                       i1l2971 01C2                                         i1l2981 0181  
                                       i1l2973 01C8                                         i1l2965 01B0  
                                       i1l2991 019C                                         i1l2983 0186  
                                       i1l2975 01C9                                         i1l2967 01B7  
                                       i1l2993 01A5                                         i1l2985 018C  
                                       i1l2977 0177                                         i1l2969 01BE  
                                       i1l2995 01AC                                         i1l2987 0191  
                                       i1l2979 017C                                         i1l2989 0196  
                                       _INLVLA 038C                                         _INLVLB 038D  
                                       _INLVLC 038E                                         _OSCFRQ 091F  
                                       _TX1REG 019A                                         _WDTCON 0097  
                                       _TX1STA 019E                               _I2C1_DO_TX_EMPTY 0000  
                               __CFG_PWRTE$OFF 0000                                 __CFG_STVREN$ON 0000  
                          _EUSART_Transmit_ISR 01B0                                         _setLow 0247  
                        _I2C1_DO_SEND_ADR_READ 0000                                 _PMD_Initialize 0275  
                                    ??_sendPWM 007A                                      ??_setHigh 007A  
                              ?_WDT_Initialize 0079                                      ??_setZero 007A  
                         ?_EUSART_Transmit_ISR 0079                        _I2C1_DO_RX_NACK_RESTART 0000  
                            _SYSTEM_Initialize 01F2                        __end_of__initialization 005E  
                           ?_SYSTEM_Initialize 0079           __end_of_EUSART_SetTxInterruptHandler 028F  
        __size_of_EUSART_SetTxInterruptHandler 0006                   _EUSART_SetTxInterruptHandler 0289  
                      _rdBlkRegCompleteHandler 0000                                 __pcstackCOMMON 0079  
                                 __pidataBANK0 02A7                                   __pidataBANK1 0224  
                          ??_SYSTEM_Initialize 007D                               ?_TMR2_Initialize 0079  
                       __end_of_PMD_Initialize 027D                           _eusartRxStatusBuffer 003D  
              ??_EUSART_SetOverrunErrorHandler 007C                                    sendPWM@data 007C  
                    __end_of_SYSTEM_Initialize 020B                          ??_EUSART_Transmit_ISR 0079  
                                   __pbssBANK0 0020                                     __pbssBANK1 00B7  
                             ?_PWM5_Initialize 0079                    __size_of_EUSART_Receive_ISR 0039  
                        _rd1RegCompleteHandler 0000                              _I2C1_DO_SEND_STOP 0000  
                        _wr1RegCompleteHandler 0000                                     __pmaintext 0062  
                ?_EUSART_SetTxInterruptHandler 007A               _EUSART_TxDefaultInterruptHandler 0069  
                              __CFG_PPS1WAY$ON 0000                                     __pintentry 0004  
                              _I2C1_Initialize 0264                                        ?_setLow 0079  
                 ??_EUSART_DefaultErrorHandler 007A                                ?_PMD_Initialize 0079  
                                _eusartRxCount 0074                                        _SP1BRGH 019C  
                                      _SP1BRGL 019B                                        _OSCCON1 0919  
                                      _OSCCON3 091B                  __size_of_EUSART_RxDataHandler 0019  
                                      _OSCTUNE 091E                                        _PWM5DCH 0618  
                                      _PWM5DCL 0617                                        _PWM5CON 0619  
                                      _SSP1ADD 0212                                        _SLRCONA 030C  
                                      _SLRCONB 030D                                        _SLRCONC 030E  
                                      _SSP1BUF 0211                       ??_EUSART_SetErrorHandler 007C  
                               main@dummy_data 004A            __size_of_EUSART_DefaultErrorHandler 0004  
                              __size_of_setLow 000A                                        __ptext1 02B7  
                                      __ptext2 00BD                                        __ptext3 0247  
                                      __ptext4 0251                                        __ptext5 01F2  
                                      __ptext6 02AB                                        __ptext7 026D  
                                      __ptext8 023B                                        __ptext9 0275  
                        _OSCILLATOR_Initialize 025B                                      _T2CONbits 001F  
                                      _sendPWM 00BD                                        _setHigh 0251  
                     ??_PIN_MANAGER_Initialize 007A                                        _setZero 02B7  
                   __size_of_SYSTEM_Initialize 0019                                        clrloop0 0284  
                         end_of_initialization 005E          __end_of_EUSART_SetOverrunErrorHandler 029B  
       __size_of_EUSART_SetOverrunErrorHandler 0006                  _EUSART_SetOverrunErrorHandler 0295  
                                      init_ram 027D                                        initloop 027E  
                       _I2C1_DO_SEND_ADR_WRITE 0000                              _EUSART_Initialize 00FD  
                      __end_of_I2C1_Initialize 026D                                    _I2C1_Status 0020  
                           ?_EUSART_Initialize 0079                     _I2C1_DO_SEND_RESTART_WRITE 0000  
                          ??_EUSART_Initialize 007C                               ??_WDT_Initialize 007A  
               ??_EUSART_SetTxInterruptHandler 007C                                _raw_temperature 0070  
                                    _PORTCbits 000E                               __CFG_FEXTOSC$OFF 0000  
              __size_of_EUSART_SetErrorHandler 0006                      __end_of_EUSART_Initialize 013D  
           __end_of_EUSART_DefaultErrorHandler 02B7                     _EUSART_DefaultErrorHandler 02B3  
                               _I2C1_DO_RX_ACK 0000                         ?_OSCILLATOR_Initialize 0079  
                               __end_of_setLow 0251                            start_initialization 002E  
              __size_of_PIN_MANAGER_Initialize 003A   EUSART_SetRxInterruptHandler@interruptHandler 007A  
 EUSART_SetTxInterruptHandler@interruptHandler 007A                               ?_I2C1_Initialize 0079  
               ?_EUSART_SetOverrunErrorHandler 007A                               __CFG_LPBOREN$OFF 0000  
                   _EUSART_FramingErrorHandler 00D3                               ??_PMD_Initialize 007A  
                       _EUSART_SetErrorHandler 02A1                                    __pdataBANK0 006C  
                                  __pdataBANK1 00A0                                       ??_setLow 007A  
                  __end_of_EUSART_Transmit_ISR 01D2                                    __pbssCOMMON 0070  
                         _I2C1_DO_SEND_RESTART 0000                                      ___latbits 0003  
                                __pcstackBANK0 0049                       __size_of_TMR2_Initialize 0008  
                   __end_of_EUSART_Receive_ISR 01B0                     __size_of_EUSART_Initialize 0040  
             _EUSART_RxDefaultInterruptHandler 0067                                      __pnvBANK0 0067  
                                    __pnvBANK1 00C7                          _rd2RegCompleteHandler 0000  
                        __end_of_fsmStateTable 01F2                   __end_of_EUSART_RxDataHandler 0224  
                       _PIN_MANAGER_Initialize 013D                          _wr2RegCompleteHandler 0000  
                     __size_of_PWM5_Initialize 000C                                   _eusartRxHead 0076  
                                 _eusartTxHead 0078                                   _eusartRxTail 0075  
                                 _eusartTxTail 0077                   ??_INTERRUPT_InterruptManager 007A  
                      _eusartTxBufferRemaining 006B                                       _BAUD1CON 019F  
                                     ?_sendPWM 0079                                       ?_setHigh 0079  
                                     ?_setZero 0079                                 _eusartRxBuffer 00B7  
                               _eusartTxBuffer 00BF         EUSART_SetErrorHandler@interruptHandler 007A  
                                     _LATCbits 010E                                     _I2C1_DO_RX 0000  
                                   _I2C1_DO_TX 0000                                      clear_ram0 0283  
                                     _PIE1bits 0091                              _eusartRxLastError 0073  
          __size_of_INTERRUPT_InterruptManager 0028                                       _PIR1bits 0011  
              ??_EUSART_SetFramingErrorHandler 007C                      _I2C1_DO_SEND_RESTART_READ 0000  
                                    main@F7270 006C                                      main@F7272 00A0  
                                     _SSP1CON1 0215                                       _SSP1CON2 0216  
    __end_of_EUSART_DefaultOverrunErrorHandler 02B3     __size_of_EUSART_DefaultOverrunErrorHandler 0004  
          ??_EUSART_DefaultOverrunErrorHandler 0079             ?_EUSART_DefaultOverrunErrorHandler 0079  
            _EUSART_DefaultOverrunErrorHandler 02AF                                       _SSP1STAT 0214  
                                _I2C1_DO_RESET 0000                              ??_TMR2_Initialize 007A  
                      ??_OSCILLATOR_Initialize 007A                            _EUSART_ErrorHandler 00CF  
                  ?_EUSART_DefaultErrorHandler 0079                                   _raw_pressure 0045  
                            ??_PWM5_Initialize 007A                               __size_of_sendPWM 0040  
                         _EUSART_RxDataHandler 020B                               __size_of_setHigh 000A  
                                     __ptext10 013D                                       __ptext11 025B  
                                     __ptext20 01B0                                       __ptext12 0264  
                                     __ptext21 0177                                       __ptext13 00FD  
                                     __ptext22 02AF                                       __ptext14 0289  
                                     __ptext23 02BA                                       __ptext15 028F  
                                     __ptext24 02B3                                       __ptext16 0295  
                                     __ptext25 020B                                       __ptext17 029B  
                             __size_of_setZero 0003                                       __ptext18 02A1  
                                 _SSP1CON1bits 0215                                   _SSP1CON2bits 0216  
                     _I2C1_CallbackReturnReset 0000                                  __size_of_main 005B  
                      ?_EUSART_SetErrorHandler 007A                                     _RC1STAbits 019D  
EUSART_SetOverrunErrorHandler@interruptHandler 007A                                       int$flags 007E  
                                     _pressure 00CB             __end_of_INTERRUPT_InterruptManager 002C  
                   _INTERRUPT_InterruptManager 0004          __end_of_EUSART_SetFramingErrorHandler 02A1  
       __size_of_EUSART_SetFramingErrorHandler 0006                  _EUSART_SetFramingErrorHandler 029B  
                                 _SSP1STATbits 0214                                   _I2C1_DO_IDLE 0000  
                                 _I2C1_DO_RCEN 0000                                     _INTCONbits 000B  
                        ?_EUSART_RxDataHandler 0079                        __size_of_WDT_Initialize 0004  
                                     intlevel1 0000                                       sendPWM@j 007B  
                      ?_PIN_MANAGER_Initialize 0079                 __end_of_EUSART_SetErrorHandler 02A7  
                            __CFG_CLKOUTEN$OFF 0000                        _I2C1_CallbackReturnStop 0000  
         __end_of_EUSART_SetRxInterruptHandler 0295          __size_of_EUSART_SetRxInterruptHandler 0006  
                 _EUSART_SetRxInterruptHandler 028F                           _I2C1_DO_ADDRESS_NACK 0000  
                           _EUSART_Receive_ISR 0177  EUSART_SetFramingErrorHandler@interruptHandler 007A  
                     __size_of_I2C1_Initialize 0009                                  __pstringtext1 01D2  
                                  _temperature 00C7                            ?_EUSART_Receive_ISR 0079  
                                   _SSP1DATPPS 0E21                                     _SSP1CLKPPS 0E20  
                                   _TX1STAbits 019E                   __size_of_EUSART_Transmit_ISR 0022  
               __end_of_PIN_MANAGER_Initialize 0177                                    _PWMTMRSbits 061F  
                         ??_EUSART_Receive_ISR 007A  
